Component: ARM Compiler 5.06 update 4 (build 422) Tool: armlink [4d35d2]

==============================================================================

Section Cross References

    main.o(i.main) refers to system_stm32f10x.o(i.SystemInit) for SystemInit
    main.o(i.main) refers to misc.o(i.NVIC_PriorityGroupConfig) for NVIC_PriorityGroupConfig
    main.o(i.main) refers to stm32f10x_rcc.o(i.RCC_APB2PeriphClockCmd) for RCC_APB2PeriphClockCmd
    main.o(i.main) refers to delay.o(i.delay_init) for delay_init
    main.o(i.main) refers to gpio.o(i.MG_RCC) for MG_RCC
    main.o(i.main) refers to gpio.o(i.MG_Output) for MG_Output
    main.o(i.main) refers to gpio.o(i.MG_Set) for MG_Set
    main.o(i.main) refers to gpio.o(i.MG_Input) for MG_Input
    main.o(i.main) refers to gpio.o(i.MG_Get) for MG_Get
    main.o(i.main) refers to usart1.o(i.USART1_Configuration) for USART1_Configuration
    main.o(i.main) refers to bstring.o(i.itoa) for itoa
    main.o(i.main) refers to bstring.o(i.atoi) for atoi
    main.o(i.main) refers to mi2c.o(i.MI2C_Init) for MI2C_Init
    main.o(i.main) refers to mi2c.o(i.MI2C_ReadReg) for MI2C_ReadReg
    main.o(i.main) refers to hw_config.o(i.USB_Port_Set) for USB_Port_Set
    main.o(i.main) refers to delay.o(i.delay_ms) for delay_ms
    main.o(i.main) refers to hw_config.o(i.Set_USBClock) for Set_USBClock
    main.o(i.main) refers to hw_config.o(i.USB_Interrupts_Config) for USB_Interrupts_Config
    main.o(i.main) refers to usb_init.o(i.USB_Init) for USB_Init
    main.o(i.main) refers to usart1.o(i.USART1_SendWords) for USART1_SendWords
    main.o(i.main) refers to usart1.o(i.USART1_DMASendWords) for USART1_DMASendWords
    main.o(i.main) refers to hw_config.o(i.usb_printf) for usb_printf
    main.o(i.main) refers to hw_config.o(i.USB_USART_SendData) for USB_USART_SendData
    main.o(i.main) refers to main.o(i.get) for get
    main.o(i.main) refers to usart1.o(.data) for USART1_OnRecvHandler
    main.o(i.main) refers to main.o(i.finish) for finish
    main.o(i.main) refers to main.o(.data) for mpu6050
    main.o(i.main) refers to hw_config.o(.data) for USB_USART_RX_STA
    main.o(i.main) refers to hw_config.o(.bss) for USB_USART_RX_BUF
    delay.o(i.delay_init) refers to misc.o(i.SysTick_CLKSourceConfig) for SysTick_CLKSourceConfig
    delay.o(i.delay_init) refers to system_stm32f10x.o(.data) for SystemCoreClock
    delay.o(i.delay_init) refers to delay.o(.data) for fac_us
    delay.o(i.delay_ms) refers to delay.o(.data) for fac_ms
    delay.o(i.delay_us) refers to delay.o(.data) for fac_us
    bstring.o(.rev16_text) refers (Special) to use_no_semi_2.o(.text) for __use_no_semihosting
    bstring.o(.revsh_text) refers (Special) to use_no_semi_2.o(.text) for __use_no_semihosting
    bstring.o(.rrx_text) refers (Special) to use_no_semi_2.o(.text) for __use_no_semihosting
    bstring.o(.emb_text) refers (Special) to use_no_semi_2.o(.text) for __use_no_semihosting
    bstring.o(i.INTX_DISABLE) refers (Special) to use_no_semi_2.o(.text) for __use_no_semihosting
    bstring.o(i.INTX_ENABLE) refers (Special) to use_no_semi_2.o(.text) for __use_no_semihosting
    bstring.o(i.WFI_SET) refers (Special) to use_no_semi_2.o(.text) for __use_no_semihosting
    bstring.o(i._sys_exit) refers (Special) to use_no_semi_2.o(.text) for __use_no_semihosting
    bstring.o(i.atoi) refers (Special) to use_no_semi_2.o(.text) for __use_no_semihosting
    bstring.o(i.fputc) refers (Special) to use_no_semi_2.o(.text) for __use_no_semihosting
    bstring.o(i.itoa) refers (Special) to use_no_semi_2.o(.text) for __use_no_semihosting
    bstring.o(.data) refers (Special) to use_no_semi_2.o(.text) for __use_no_semihosting
    flash.o(i.Flash_ReadData) refers to flash.o(i.STMFLASH_ReadHalfWord) for STMFLASH_ReadHalfWord
    flash.o(i.Flash_WriteData) refers to flash.o(i.STMFLASH_Write) for STMFLASH_Write
    flash.o(i.STMFLASH_Read) refers to flash.o(i.STMFLASH_ReadHalfWord) for STMFLASH_ReadHalfWord
    flash.o(i.STMFLASH_Write) refers to stm32f10x_flash.o(i.FLASH_Unlock) for FLASH_Unlock
    flash.o(i.STMFLASH_Write) refers to flash.o(i.STMFLASH_Read) for STMFLASH_Read
    flash.o(i.STMFLASH_Write) refers to stm32f10x_flash.o(i.FLASH_ErasePage) for FLASH_ErasePage
    flash.o(i.STMFLASH_Write) refers to flash.o(i.STMFLASH_Write_NoCheck) for STMFLASH_Write_NoCheck
    flash.o(i.STMFLASH_Write) refers to stm32f10x_flash.o(i.FLASH_Lock) for FLASH_Lock
    flash.o(i.STMFLASH_Write) refers to flash.o(.bss) for STMFLASH_BUF
    flash.o(i.STMFLASH_Write_NoCheck) refers to stm32f10x_flash.o(i.FLASH_ProgramHalfWord) for FLASH_ProgramHalfWord
    flash.o(i.Test_Write) refers to flash.o(i.STMFLASH_Write) for STMFLASH_Write
    gpio.o(i.MG_Get) refers to gpio.o(i.MG_PORT_F) for MG_PORT_F
    gpio.o(i.MG_Get) refers to gpio.o(i.MG_PIN_F) for MG_PIN_F
    gpio.o(i.MG_Get) refers to stm32f10x_gpio.o(i.GPIO_ReadInputDataBit) for GPIO_ReadInputDataBit
    gpio.o(i.MG_Input) refers to gpio.o(i.MG_PORT_F) for MG_PORT_F
    gpio.o(i.MG_Input) refers to gpio.o(i.MG_PIN_F) for MG_PIN_F
    gpio.o(i.MG_Input) refers to stm32f10x_gpio.o(i.GPIO_Init) for GPIO_Init
    gpio.o(i.MG_Output) refers to gpio.o(i.MG_PORT_F) for MG_PORT_F
    gpio.o(i.MG_Output) refers to gpio.o(i.MG_PIN_F) for MG_PIN_F
    gpio.o(i.MG_Output) refers to stm32f10x_gpio.o(i.GPIO_Init) for GPIO_Init
    gpio.o(i.MG_RCC) refers to stm32f10x_rcc.o(i.RCC_APB2PeriphClockCmd) for RCC_APB2PeriphClockCmd
    gpio.o(i.MG_Set) refers to gpio.o(i.MG_PORT_F) for MG_PORT_F
    gpio.o(i.MG_Set) refers to gpio.o(i.MG_PIN_F) for MG_PIN_F
    gpio.o(i.MG_Set) refers to stm32f10x_gpio.o(i.GPIO_ResetBits) for GPIO_ResetBits
    gpio.o(i.MG_Set) refers to stm32f10x_gpio.o(i.GPIO_SetBits) for GPIO_SetBits
    gpio.o(i.MG_Toggle) refers to gpio.o(i.MG_PORT_F) for MG_PORT_F
    gpio.o(i.MG_Toggle) refers to gpio.o(i.MG_PIN_F) for MG_PIN_F
    gpio.o(i.MG_Toggle) refers to stm32f10x_gpio.o(i.GPIO_ReadOutputDataBit) for GPIO_ReadOutputDataBit
    gpio.o(i.MG_Toggle) refers to gpio.o(i.MG_Set) for MG_Set
    mi2c.o(i.MI2C_End) refers to mi2c.o(i.MI2C_Out) for MI2C_Out
    mi2c.o(i.MI2C_End) refers to gpio.o(i.MG_Set) for MG_Set
    mi2c.o(i.MI2C_End) refers to delay.o(i.delayus) for delayus
    mi2c.o(i.MI2C_Get) refers to gpio.o(i.MG_Get) for MG_Get
    mi2c.o(i.MI2C_GetAck) refers to mi2c.o(i.MI2C_In) for MI2C_In
    mi2c.o(i.MI2C_GetAck) refers to mi2c.o(i.MI2C_Set) for MI2C_Set
    mi2c.o(i.MI2C_GetAck) refers to delay.o(i.delayus) for delayus
    mi2c.o(i.MI2C_GetAck) refers to gpio.o(i.MG_Set) for MG_Set
    mi2c.o(i.MI2C_GetAck) refers to mi2c.o(i.MI2C_Get) for MI2C_Get
    mi2c.o(i.MI2C_In) refers to gpio.o(i.MG_Input) for MG_Input
    mi2c.o(i.MI2C_Init) refers to gpio.o(i.MG_RCC) for MG_RCC
    mi2c.o(i.MI2C_Init) refers to gpio.o(i.MG_Output) for MG_Output
    mi2c.o(i.MI2C_Init) refers to gpio.o(i.MG_Set) for MG_Set
    mi2c.o(i.MI2C_NoAck) refers to mi2c.o(i.MI2C_Out) for MI2C_Out
    mi2c.o(i.MI2C_NoAck) refers to mi2c.o(i.MI2C_Set) for MI2C_Set
    mi2c.o(i.MI2C_NoAck) refers to delay.o(i.delayus) for delayus
    mi2c.o(i.MI2C_NoAck) refers to gpio.o(i.MG_Set) for MG_Set
    mi2c.o(i.MI2C_Out) refers to gpio.o(i.MG_Output) for MG_Output
    mi2c.o(i.MI2C_Read) refers to mi2c.o(i.MI2C_In) for MI2C_In
    mi2c.o(i.MI2C_Read) refers to mi2c.o(i.MI2C_Get) for MI2C_Get
    mi2c.o(i.MI2C_Read) refers to delay.o(i.delayus) for delayus
    mi2c.o(i.MI2C_Read) refers to gpio.o(i.MG_Set) for MG_Set
    mi2c.o(i.MI2C_ReadMiltiReg) refers to mi2c.o(i.MI2C_Start) for MI2C_Start
    mi2c.o(i.MI2C_ReadMiltiReg) refers to mi2c.o(i.MI2C_Write) for MI2C_Write
    mi2c.o(i.MI2C_ReadMiltiReg) refers to mi2c.o(i.MI2C_GetAck) for MI2C_GetAck
    mi2c.o(i.MI2C_ReadMiltiReg) refers to mi2c.o(i.MI2C_Read) for MI2C_Read
    mi2c.o(i.MI2C_ReadMiltiReg) refers to mi2c.o(i.MI2C_SetNoAck) for MI2C_SetNoAck
    mi2c.o(i.MI2C_ReadMiltiReg) refers to mi2c.o(i.MI2C_SetAck) for MI2C_SetAck
    mi2c.o(i.MI2C_ReadMiltiReg) refers to mi2c.o(i.MI2C_End) for MI2C_End
    mi2c.o(i.MI2C_ReadReg) refers to mi2c.o(i.MI2C_Start) for MI2C_Start
    mi2c.o(i.MI2C_ReadReg) refers to mi2c.o(i.MI2C_Write) for MI2C_Write
    mi2c.o(i.MI2C_ReadReg) refers to mi2c.o(i.MI2C_GetAck) for MI2C_GetAck
    mi2c.o(i.MI2C_ReadReg) refers to mi2c.o(i.MI2C_Read) for MI2C_Read
    mi2c.o(i.MI2C_ReadReg) refers to mi2c.o(i.MI2C_SetNoAck) for MI2C_SetNoAck
    mi2c.o(i.MI2C_ReadReg) refers to mi2c.o(i.MI2C_End) for MI2C_End
    mi2c.o(i.MI2C_Set) refers to gpio.o(i.MG_Set) for MG_Set
    mi2c.o(i.MI2C_SetAck) refers to gpio.o(i.MG_Set) for MG_Set
    mi2c.o(i.MI2C_SetAck) refers to mi2c.o(i.MI2C_Out) for MI2C_Out
    mi2c.o(i.MI2C_SetAck) refers to mi2c.o(i.MI2C_Set) for MI2C_Set
    mi2c.o(i.MI2C_SetAck) refers to delay.o(i.delayus) for delayus
    mi2c.o(i.MI2C_SetNoAck) refers to gpio.o(i.MG_Set) for MG_Set
    mi2c.o(i.MI2C_SetNoAck) refers to mi2c.o(i.MI2C_Out) for MI2C_Out
    mi2c.o(i.MI2C_SetNoAck) refers to mi2c.o(i.MI2C_Set) for MI2C_Set
    mi2c.o(i.MI2C_SetNoAck) refers to delay.o(i.delayus) for delayus
    mi2c.o(i.MI2C_Start) refers to mi2c.o(i.MI2C_Out) for MI2C_Out
    mi2c.o(i.MI2C_Start) refers to gpio.o(i.MG_Set) for MG_Set
    mi2c.o(i.MI2C_Start) refers to delay.o(i.delayus) for delayus
    mi2c.o(i.MI2C_Write) refers to mi2c.o(i.MI2C_Out) for MI2C_Out
    mi2c.o(i.MI2C_Write) refers to mi2c.o(i.MI2C_Set) for MI2C_Set
    mi2c.o(i.MI2C_Write) refers to delay.o(i.delayus) for delayus
    mi2c.o(i.MI2C_Write) refers to gpio.o(i.MG_Set) for MG_Set
    mi2c.o(i.MI2C_WriteMiltiReg) refers to mi2c.o(i.MI2C_Start) for MI2C_Start
    mi2c.o(i.MI2C_WriteMiltiReg) refers to mi2c.o(i.MI2C_Write) for MI2C_Write
    mi2c.o(i.MI2C_WriteMiltiReg) refers to mi2c.o(i.MI2C_GetAck) for MI2C_GetAck
    mi2c.o(i.MI2C_WriteMiltiReg) refers to mi2c.o(i.MI2C_End) for MI2C_End
    mi2c.o(i.MI2C_WriteReg) refers to mi2c.o(i.MI2C_Start) for MI2C_Start
    mi2c.o(i.MI2C_WriteReg) refers to mi2c.o(i.MI2C_Write) for MI2C_Write
    mi2c.o(i.MI2C_WriteReg) refers to mi2c.o(i.MI2C_GetAck) for MI2C_GetAck
    mi2c.o(i.MI2C_WriteReg) refers to mi2c.o(i.MI2C_End) for MI2C_End
    tim.o(i.TIM2_Configuration) refers to stm32f10x_rcc.o(i.RCC_APB1PeriphClockCmd) for RCC_APB1PeriphClockCmd
    tim.o(i.TIM2_Configuration) refers to misc.o(i.NVIC_Init) for NVIC_Init
    tim.o(i.TIM2_Configuration) refers to stm32f10x_tim.o(i.TIM_TimeBaseInit) for TIM_TimeBaseInit
    tim.o(i.TIM2_Start) refers to stm32f10x_tim.o(i.TIM_ITConfig) for TIM_ITConfig
    tim.o(i.TIM2_Start) refers to stm32f10x_tim.o(i.TIM_ClearFlag) for TIM_ClearFlag
    tim.o(i.TIM2_Start) refers to stm32f10x_tim.o(i.TIM_Cmd) for TIM_Cmd
    tim.o(i.TIM3_Configuration) refers to stm32f10x_rcc.o(i.RCC_APB1PeriphClockCmd) for RCC_APB1PeriphClockCmd
    tim.o(i.TIM3_Configuration) refers to misc.o(i.NVIC_Init) for NVIC_Init
    tim.o(i.TIM3_Configuration) refers to stm32f10x_tim.o(i.TIM_TimeBaseInit) for TIM_TimeBaseInit
    tim.o(i.TIM3_Start) refers to stm32f10x_tim.o(i.TIM_ITConfig) for TIM_ITConfig
    tim.o(i.TIM3_Start) refers to stm32f10x_tim.o(i.TIM_ClearFlag) for TIM_ClearFlag
    tim.o(i.TIM3_Start) refers to stm32f10x_tim.o(i.TIM_Cmd) for TIM_Cmd
    usart1.o(i.DMA1_Channel4_IRQHandler) refers to stm32f10x_dma.o(i.DMA_GetITStatus) for DMA_GetITStatus
    usart1.o(i.DMA1_Channel4_IRQHandler) refers to stm32f10x_dma.o(i.DMA_Cmd) for DMA_Cmd
    usart1.o(i.DMA1_Channel4_IRQHandler) refers to stm32f10x_dma.o(i.DMA_ClearFlag) for DMA_ClearFlag
    usart1.o(i.DMA1_Channel4_IRQHandler) refers to stm32f10x_dma.o(i.DMA_ClearITPendingBit) for DMA_ClearITPendingBit
    usart1.o(i.DMA1_Channel4_IRQHandler) refers to usart1.o(.data) for USART1_OnSendHandler
    usart1.o(i.USART1_Configuration) refers to stm32f10x_rcc.o(i.RCC_APB2PeriphClockCmd) for RCC_APB2PeriphClockCmd
    usart1.o(i.USART1_Configuration) refers to stm32f10x_rcc.o(i.RCC_AHBPeriphClockCmd) for RCC_AHBPeriphClockCmd
    usart1.o(i.USART1_Configuration) refers to stm32f10x_gpio.o(i.GPIO_Init) for GPIO_Init
    usart1.o(i.USART1_Configuration) refers to stm32f10x_usart.o(i.USART_DeInit) for USART_DeInit
    usart1.o(i.USART1_Configuration) refers to stm32f10x_usart.o(i.USART_Init) for USART_Init
    usart1.o(i.USART1_Configuration) refers to stm32f10x_dma.o(i.DMA_Init) for DMA_Init
    usart1.o(i.USART1_Configuration) refers to misc.o(i.NVIC_Init) for NVIC_Init
    usart1.o(i.USART1_Configuration) refers to stm32f10x_usart.o(i.USART_DMACmd) for USART_DMACmd
    usart1.o(i.USART1_Configuration) refers to stm32f10x_dma.o(i.DMA_Cmd) for DMA_Cmd
    usart1.o(i.USART1_Configuration) refers to stm32f10x_dma.o(i.DMA_ITConfig) for DMA_ITConfig
    usart1.o(i.USART1_Configuration) refers to stm32f10x_usart.o(i.USART_ITConfig) for USART_ITConfig
    usart1.o(i.USART1_Configuration) refers to stm32f10x_usart.o(i.USART_Cmd) for USART_Cmd
    usart1.o(i.USART1_Configuration) refers to usart1.o(.bss) for usart1_rx_buffer
    usart1.o(i.USART1_DMASendWords) refers to stm32f10x_dma.o(i.DMA_GetFlagStatus) for DMA_GetFlagStatus
    usart1.o(i.USART1_DMASendWords) refers to stm32f10x_dma.o(i.DMA_SetCurrDataCounter) for DMA_SetCurrDataCounter
    usart1.o(i.USART1_DMASendWords) refers to stm32f10x_dma.o(i.DMA_Cmd) for DMA_Cmd
    usart1.o(i.USART1_DMASendWords) refers to usart1.o(.bss) for usart1_tx_buffer
    usart1.o(i.USART1_IRQHandler) refers to stm32f10x_usart.o(i.USART_GetITStatus) for USART_GetITStatus
    usart1.o(i.USART1_IRQHandler) refers to stm32f10x_dma.o(i.DMA_Cmd) for DMA_Cmd
    usart1.o(i.USART1_IRQHandler) refers to stm32f10x_dma.o(i.DMA_ClearFlag) for DMA_ClearFlag
    usart1.o(i.USART1_IRQHandler) refers to stm32f10x_dma.o(i.DMA_GetCurrDataCounter) for DMA_GetCurrDataCounter
    usart1.o(i.USART1_IRQHandler) refers to stm32f10x_dma.o(i.DMA_SetCurrDataCounter) for DMA_SetCurrDataCounter
    usart1.o(i.USART1_IRQHandler) refers to stm32f10x_usart.o(i.USART_ReceiveData) for USART_ReceiveData
    usart1.o(i.USART1_IRQHandler) refers to stm32f10x_usart.o(i.USART_ClearITPendingBit) for USART_ClearITPendingBit
    usart1.o(i.USART1_IRQHandler) refers to usart1.o(.bss) for usart1_rx_buffer
    usart1.o(i.USART1_IRQHandler) refers to usart1.o(.data) for USART1_OnRecvHandler
    usart1.o(i.USART1_SendChar) refers to stm32f10x_usart.o(i.USART_GetFlagStatus) for USART_GetFlagStatus
    usart1.o(i.USART1_SendChar) refers to stm32f10x_usart.o(i.USART_SendData) for USART_SendData
    usart1.o(i.USART1_SendWords) refers to stm32f10x_usart.o(i.USART_GetFlagStatus) for USART_GetFlagStatus
    usart1.o(i.USART1_SendWords) refers to stm32f10x_usart.o(i.USART_SendData) for USART_SendData
    usart1.o(.data) refers to usart1.o(i.USART1_OnRecv) for USART1_OnRecv
    usart1.o(.data) refers to usart1.o(i.USART1_OnSend) for USART1_OnSend
    usart2.o(i.DMA1_Channel7_IRQHandler) refers to stm32f10x_dma.o(i.DMA_GetITStatus) for DMA_GetITStatus
    usart2.o(i.DMA1_Channel7_IRQHandler) refers to stm32f10x_dma.o(i.DMA_Cmd) for DMA_Cmd
    usart2.o(i.DMA1_Channel7_IRQHandler) refers to stm32f10x_dma.o(i.DMA_ClearFlag) for DMA_ClearFlag
    usart2.o(i.DMA1_Channel7_IRQHandler) refers to stm32f10x_dma.o(i.DMA_ClearITPendingBit) for DMA_ClearITPendingBit
    usart2.o(i.DMA1_Channel7_IRQHandler) refers to usart2.o(.data) for USART2_OnSendHandler
    usart2.o(i.USART2_Configuration) refers to stm32f10x_rcc.o(i.RCC_APB2PeriphClockCmd) for RCC_APB2PeriphClockCmd
    usart2.o(i.USART2_Configuration) refers to stm32f10x_rcc.o(i.RCC_APB1PeriphClockCmd) for RCC_APB1PeriphClockCmd
    usart2.o(i.USART2_Configuration) refers to stm32f10x_rcc.o(i.RCC_AHBPeriphClockCmd) for RCC_AHBPeriphClockCmd
    usart2.o(i.USART2_Configuration) refers to stm32f10x_gpio.o(i.GPIO_Init) for GPIO_Init
    usart2.o(i.USART2_Configuration) refers to stm32f10x_usart.o(i.USART_DeInit) for USART_DeInit
    usart2.o(i.USART2_Configuration) refers to stm32f10x_usart.o(i.USART_Init) for USART_Init
    usart2.o(i.USART2_Configuration) refers to stm32f10x_dma.o(i.DMA_Init) for DMA_Init
    usart2.o(i.USART2_Configuration) refers to misc.o(i.NVIC_Init) for NVIC_Init
    usart2.o(i.USART2_Configuration) refers to stm32f10x_usart.o(i.USART_DMACmd) for USART_DMACmd
    usart2.o(i.USART2_Configuration) refers to stm32f10x_dma.o(i.DMA_Cmd) for DMA_Cmd
    usart2.o(i.USART2_Configuration) refers to stm32f10x_usart.o(i.USART_ITConfig) for USART_ITConfig
    usart2.o(i.USART2_Configuration) refers to stm32f10x_dma.o(i.DMA_ITConfig) for DMA_ITConfig
    usart2.o(i.USART2_Configuration) refers to stm32f10x_usart.o(i.USART_Cmd) for USART_Cmd
    usart2.o(i.USART2_Configuration) refers to usart2.o(.bss) for usart2_rx_buffer
    usart2.o(i.USART2_DMASendWords) refers to stm32f10x_dma.o(i.DMA_GetFlagStatus) for DMA_GetFlagStatus
    usart2.o(i.USART2_DMASendWords) refers to stm32f10x_dma.o(i.DMA_SetCurrDataCounter) for DMA_SetCurrDataCounter
    usart2.o(i.USART2_DMASendWords) refers to stm32f10x_dma.o(i.DMA_Cmd) for DMA_Cmd
    usart2.o(i.USART2_DMASendWords) refers to usart2.o(.bss) for usart2_tx_buffer
    usart2.o(i.USART2_IRQHandler) refers to stm32f10x_usart.o(i.USART_GetITStatus) for USART_GetITStatus
    usart2.o(i.USART2_IRQHandler) refers to stm32f10x_dma.o(i.DMA_Cmd) for DMA_Cmd
    usart2.o(i.USART2_IRQHandler) refers to stm32f10x_dma.o(i.DMA_ClearFlag) for DMA_ClearFlag
    usart2.o(i.USART2_IRQHandler) refers to stm32f10x_dma.o(i.DMA_GetCurrDataCounter) for DMA_GetCurrDataCounter
    usart2.o(i.USART2_IRQHandler) refers to stm32f10x_dma.o(i.DMA_SetCurrDataCounter) for DMA_SetCurrDataCounter
    usart2.o(i.USART2_IRQHandler) refers to stm32f10x_usart.o(i.USART_ReceiveData) for USART_ReceiveData
    usart2.o(i.USART2_IRQHandler) refers to stm32f10x_usart.o(i.USART_ClearITPendingBit) for USART_ClearITPendingBit
    usart2.o(i.USART2_IRQHandler) refers to usart2.o(.bss) for usart2_rx_buffer
    usart2.o(i.USART2_IRQHandler) refers to usart2.o(.data) for USART2_OnRecvHandler
    usart2.o(i.USART2_SendChar) refers to stm32f10x_usart.o(i.USART_GetFlagStatus) for USART_GetFlagStatus
    usart2.o(i.USART2_SendChar) refers to stm32f10x_usart.o(i.USART_SendData) for USART_SendData
    usart2.o(i.USART2_SendWords) refers to stm32f10x_usart.o(i.USART_GetFlagStatus) for USART_GetFlagStatus
    usart2.o(i.USART2_SendWords) refers to stm32f10x_usart.o(i.USART_SendData) for USART_SendData
    usart2.o(.data) refers to usart2.o(i.USART2_OnRecv) for USART2_OnRecv
    usart2.o(.data) refers to usart2.o(i.USART2_OnSend) for USART2_OnSend
    usart3.o(i.DMA1_Channel2_IRQHandler) refers to stm32f10x_dma.o(i.DMA_GetITStatus) for DMA_GetITStatus
    usart3.o(i.DMA1_Channel2_IRQHandler) refers to stm32f10x_dma.o(i.DMA_Cmd) for DMA_Cmd
    usart3.o(i.DMA1_Channel2_IRQHandler) refers to stm32f10x_dma.o(i.DMA_ClearFlag) for DMA_ClearFlag
    usart3.o(i.DMA1_Channel2_IRQHandler) refers to stm32f10x_dma.o(i.DMA_ClearITPendingBit) for DMA_ClearITPendingBit
    usart3.o(i.DMA1_Channel2_IRQHandler) refers to usart3.o(.data) for USART3_OnSendHandler
    usart3.o(i.USART3_Configuration) refers to stm32f10x_rcc.o(i.RCC_APB2PeriphClockCmd) for RCC_APB2PeriphClockCmd
    usart3.o(i.USART3_Configuration) refers to stm32f10x_rcc.o(i.RCC_APB1PeriphClockCmd) for RCC_APB1PeriphClockCmd
    usart3.o(i.USART3_Configuration) refers to stm32f10x_rcc.o(i.RCC_AHBPeriphClockCmd) for RCC_AHBPeriphClockCmd
    usart3.o(i.USART3_Configuration) refers to stm32f10x_gpio.o(i.GPIO_Init) for GPIO_Init
    usart3.o(i.USART3_Configuration) refers to stm32f10x_usart.o(i.USART_DeInit) for USART_DeInit
    usart3.o(i.USART3_Configuration) refers to stm32f10x_usart.o(i.USART_Init) for USART_Init
    usart3.o(i.USART3_Configuration) refers to stm32f10x_dma.o(i.DMA_Init) for DMA_Init
    usart3.o(i.USART3_Configuration) refers to misc.o(i.NVIC_Init) for NVIC_Init
    usart3.o(i.USART3_Configuration) refers to stm32f10x_usart.o(i.USART_DMACmd) for USART_DMACmd
    usart3.o(i.USART3_Configuration) refers to stm32f10x_dma.o(i.DMA_Cmd) for DMA_Cmd
    usart3.o(i.USART3_Configuration) refers to stm32f10x_dma.o(i.DMA_ITConfig) for DMA_ITConfig
    usart3.o(i.USART3_Configuration) refers to stm32f10x_usart.o(i.USART_ITConfig) for USART_ITConfig
    usart3.o(i.USART3_Configuration) refers to stm32f10x_usart.o(i.USART_Cmd) for USART_Cmd
    usart3.o(i.USART3_Configuration) refers to usart3.o(.bss) for usart3_rx_buffer
    usart3.o(i.USART3_DMASendWords) refers to stm32f10x_dma.o(i.DMA_GetFlagStatus) for DMA_GetFlagStatus
    usart3.o(i.USART3_DMASendWords) refers to stm32f10x_dma.o(i.DMA_SetCurrDataCounter) for DMA_SetCurrDataCounter
    usart3.o(i.USART3_DMASendWords) refers to stm32f10x_dma.o(i.DMA_Cmd) for DMA_Cmd
    usart3.o(i.USART3_DMASendWords) refers to usart3.o(.bss) for usart3_tx_buffer
    usart3.o(i.USART3_IRQHandler) refers to stm32f10x_usart.o(i.USART_GetITStatus) for USART_GetITStatus
    usart3.o(i.USART3_IRQHandler) refers to stm32f10x_dma.o(i.DMA_Cmd) for DMA_Cmd
    usart3.o(i.USART3_IRQHandler) refers to stm32f10x_dma.o(i.DMA_ClearFlag) for DMA_ClearFlag
    usart3.o(i.USART3_IRQHandler) refers to stm32f10x_dma.o(i.DMA_GetCurrDataCounter) for DMA_GetCurrDataCounter
    usart3.o(i.USART3_IRQHandler) refers to stm32f10x_dma.o(i.DMA_SetCurrDataCounter) for DMA_SetCurrDataCounter
    usart3.o(i.USART3_IRQHandler) refers to stm32f10x_usart.o(i.USART_ReceiveData) for USART_ReceiveData
    usart3.o(i.USART3_IRQHandler) refers to stm32f10x_usart.o(i.USART_ClearITPendingBit) for USART_ClearITPendingBit
    usart3.o(i.USART3_IRQHandler) refers to usart3.o(.bss) for usart3_rx_buffer
    usart3.o(i.USART3_IRQHandler) refers to usart3.o(.data) for USART3_OnRecvHandler
    usart3.o(i.USART3_SendChar) refers to stm32f10x_usart.o(i.USART_GetFlagStatus) for USART_GetFlagStatus
    usart3.o(i.USART3_SendChar) refers to stm32f10x_usart.o(i.USART_SendData) for USART_SendData
    usart3.o(i.USART3_SendWords) refers to stm32f10x_usart.o(i.USART_GetFlagStatus) for USART_GetFlagStatus
    usart3.o(i.USART3_SendWords) refers to stm32f10x_usart.o(i.USART_SendData) for USART_SendData
    usart3.o(.data) refers to usart3.o(i.USART3_OnRecv) for USART3_OnRecv
    usart3.o(.data) refers to usart3.o(i.USART3_OnSend) for USART3_OnSend
    spi1.o(i.SPI1M_Configuration) refers to stm32f10x_rcc.o(i.RCC_APB2PeriphClockCmd) for RCC_APB2PeriphClockCmd
    spi1.o(i.SPI1M_Configuration) refers to stm32f10x_gpio.o(i.GPIO_Init) for GPIO_Init
    spi1.o(i.SPI1M_Configuration) refers to stm32f10x_spi.o(i.SPI_Init) for SPI_Init
    spi1.o(i.SPI1M_Configuration) refers to stm32f10x_spi.o(i.SPI_Cmd) for SPI_Cmd
    spi1.o(i.SPI1M_Configuration) refers to spi1.o(.bss) for spi1
    spi1.o(i.SPI1_HighFirst) refers to stm32f10x_spi.o(i.SPI_Init) for SPI_Init
    spi1.o(i.SPI1_HighFirst) refers to stm32f10x_spi.o(i.SPI_Cmd) for SPI_Cmd
    spi1.o(i.SPI1_HighFirst) refers to spi1.o(.bss) for spi1
    spi1.o(i.SPI1_Input) refers to stm32f10x_spi.o(i.SPI_BiDirectionalLineConfig) for SPI_BiDirectionalLineConfig
    spi1.o(i.SPI1_Output) refers to stm32f10x_spi.o(i.SPI_BiDirectionalLineConfig) for SPI_BiDirectionalLineConfig
    spi1.o(i.SPI1_ReadByte) refers to stm32f10x_spi.o(i.SPI_I2S_GetFlagStatus) for SPI_I2S_GetFlagStatus
    spi1.o(i.SPI1_ReadByte) refers to stm32f10x_spi.o(i.SPI_I2S_ReceiveData) for SPI_I2S_ReceiveData
    spi1.o(i.SPI1_ReadWriteByte) refers to stm32f10x_spi.o(i.SPI_I2S_GetFlagStatus) for SPI_I2S_GetFlagStatus
    spi1.o(i.SPI1_ReadWriteByte) refers to stm32f10x_spi.o(i.SPI_I2S_SendData) for SPI_I2S_SendData
    spi1.o(i.SPI1_ReadWriteByte) refers to stm32f10x_spi.o(i.SPI_I2S_ReceiveData) for SPI_I2S_ReceiveData
    spi1.o(i.SPI1_SetDoubleMode) refers to stm32f10x_spi.o(i.SPI_Init) for SPI_Init
    spi1.o(i.SPI1_SetDoubleMode) refers to stm32f10x_spi.o(i.SPI_Cmd) for SPI_Cmd
    spi1.o(i.SPI1_SetDoubleMode) refers to spi1.o(.bss) for spi1
    spi1.o(i.SPI1_SetSingleMode) refers to stm32f10x_spi.o(i.SPI_Init) for SPI_Init
    spi1.o(i.SPI1_SetSingleMode) refers to stm32f10x_spi.o(i.SPI_Cmd) for SPI_Cmd
    spi1.o(i.SPI1_SetSingleMode) refers to spi1.o(.bss) for spi1
    spi1.o(i.SPI1_SetSpeed) refers to stm32f10x_spi.o(i.SPI_Cmd) for SPI_Cmd
    spi1.o(i.SPI1_SetSpeed) refers to stm32f10x_spi.o(i.SPI_Init) for SPI_Init
    spi1.o(i.SPI1_SetSpeed) refers to spi1.o(.bss) for spi1
    spi1.o(i.SPI1_WriteByte) refers to stm32f10x_spi.o(i.SPI_I2S_GetFlagStatus) for SPI_I2S_GetFlagStatus
    spi1.o(i.SPI1_WriteByte) refers to stm32f10x_spi.o(i.SPI_I2S_SendData) for SPI_I2S_SendData
    mspi.o(i.MSPI_Down) refers to gpio.o(i.MG_Set) for MG_Set
    mspi.o(i.MSPI_End) refers to gpio.o(i.MG_Set) for MG_Set
    mspi.o(i.MSPI_Get) refers to gpio.o(i.MG_Get) for MG_Get
    mspi.o(i.MSPI_In) refers to gpio.o(i.MG_Input) for MG_Input
    mspi.o(i.MSPI_Init) refers to gpio.o(i.MG_RCC) for MG_RCC
    mspi.o(i.MSPI_Init) refers to gpio.o(i.MG_Output) for MG_Output
    mspi.o(i.MSPI_Init) refers to gpio.o(i.MG_Set) for MG_Set
    mspi.o(i.MSPI_Out) refers to gpio.o(i.MG_Output) for MG_Output
    mspi.o(i.MSPI_ReadByte) refers to mspi.o(i.MSPI_Down) for MSPI_Down
    mspi.o(i.MSPI_ReadByte) refers to mspi.o(i.MSPI_Get) for MSPI_Get
    mspi.o(i.MSPI_ReadByte) refers to mspi.o(i.MSPI_Wait) for MSPI_Wait
    mspi.o(i.MSPI_ReadByte) refers to mspi.o(i.MSPI_Up) for MSPI_Up
    mspi.o(i.MSPI_ReadMultiReg) refers to mspi.o(i.MSPI_Start) for MSPI_Start
    mspi.o(i.MSPI_ReadMultiReg) refers to mspi.o(i.MSPI_Out) for MSPI_Out
    mspi.o(i.MSPI_ReadMultiReg) refers to mspi.o(i.MSPI_WriteByte) for MSPI_WriteByte
    mspi.o(i.MSPI_ReadMultiReg) refers to mspi.o(i.MSPI_In) for MSPI_In
    mspi.o(i.MSPI_ReadMultiReg) refers to mspi.o(i.MSPI_ReadByte) for MSPI_ReadByte
    mspi.o(i.MSPI_ReadMultiReg) refers to mspi.o(i.MSPI_End) for MSPI_End
    mspi.o(i.MSPI_ReadReg) refers to mspi.o(i.MSPI_Start) for MSPI_Start
    mspi.o(i.MSPI_ReadReg) refers to mspi.o(i.MSPI_Out) for MSPI_Out
    mspi.o(i.MSPI_ReadReg) refers to mspi.o(i.MSPI_WriteByte) for MSPI_WriteByte
    mspi.o(i.MSPI_ReadReg) refers to mspi.o(i.MSPI_In) for MSPI_In
    mspi.o(i.MSPI_ReadReg) refers to mspi.o(i.MSPI_ReadByte) for MSPI_ReadByte
    mspi.o(i.MSPI_ReadReg) refers to mspi.o(i.MSPI_End) for MSPI_End
    mspi.o(i.MSPI_ReadWriteByte) refers to mspi.o(i.MSPI_Down) for MSPI_Down
    mspi.o(i.MSPI_ReadWriteByte) refers to mspi.o(i.MSPI_Get) for MSPI_Get
    mspi.o(i.MSPI_ReadWriteByte) refers to mspi.o(i.MSPI_Set) for MSPI_Set
    mspi.o(i.MSPI_ReadWriteByte) refers to mspi.o(i.MSPI_Wait) for MSPI_Wait
    mspi.o(i.MSPI_ReadWriteByte) refers to mspi.o(i.MSPI_Up) for MSPI_Up
    mspi.o(i.MSPI_Set) refers to gpio.o(i.MG_Set) for MG_Set
    mspi.o(i.MSPI_Start) refers to gpio.o(i.MG_Set) for MG_Set
    mspi.o(i.MSPI_Up) refers to gpio.o(i.MG_Set) for MG_Set
    mspi.o(i.MSPI_Wait) refers to delay.o(i.delayus) for delayus
    mspi.o(i.MSPI_WriteByte) refers to mspi.o(i.MSPI_Down) for MSPI_Down
    mspi.o(i.MSPI_WriteByte) refers to mspi.o(i.MSPI_Set) for MSPI_Set
    mspi.o(i.MSPI_WriteByte) refers to mspi.o(i.MSPI_Wait) for MSPI_Wait
    mspi.o(i.MSPI_WriteByte) refers to mspi.o(i.MSPI_Up) for MSPI_Up
    mspi.o(i.MSPI_WriteCmd) refers to mspi.o(i.MSPI_Start) for MSPI_Start
    mspi.o(i.MSPI_WriteCmd) refers to mspi.o(i.MSPI_Out) for MSPI_Out
    mspi.o(i.MSPI_WriteCmd) refers to mspi.o(i.MSPI_WriteByte) for MSPI_WriteByte
    mspi.o(i.MSPI_WriteCmd) refers to mspi.o(i.MSPI_End) for MSPI_End
    mspi.o(i.MSPI_WriteMultiReg) refers to mspi.o(i.MSPI_Start) for MSPI_Start
    mspi.o(i.MSPI_WriteMultiReg) refers to mspi.o(i.MSPI_Out) for MSPI_Out
    mspi.o(i.MSPI_WriteMultiReg) refers to mspi.o(i.MSPI_WriteByte) for MSPI_WriteByte
    mspi.o(i.MSPI_WriteMultiReg) refers to mspi.o(i.MSPI_End) for MSPI_End
    mspi.o(i.MSPI_WriteReg) refers to mspi.o(i.MSPI_Start) for MSPI_Start
    mspi.o(i.MSPI_WriteReg) refers to mspi.o(i.MSPI_Out) for MSPI_Out
    mspi.o(i.MSPI_WriteReg) refers to mspi.o(i.MSPI_WriteByte) for MSPI_WriteByte
    mspi.o(i.MSPI_WriteReg) refers to mspi.o(i.MSPI_End) for MSPI_End
    ad.o(i.ADC_Configuration) refers to stm32f10x_rcc.o(i.RCC_AHBPeriphClockCmd) for RCC_AHBPeriphClockCmd
    ad.o(i.ADC_Configuration) refers to stm32f10x_rcc.o(i.RCC_APB2PeriphClockCmd) for RCC_APB2PeriphClockCmd
    ad.o(i.ADC_Configuration) refers to stm32f10x_gpio.o(i.GPIO_Init) for GPIO_Init
    ad.o(i.ADC_Configuration) refers to stm32f10x_dma.o(i.DMA_DeInit) for DMA_DeInit
    ad.o(i.ADC_Configuration) refers to stm32f10x_dma.o(i.DMA_Init) for DMA_Init
    ad.o(i.ADC_Configuration) refers to stm32f10x_dma.o(i.DMA_Cmd) for DMA_Cmd
    ad.o(i.ADC_Configuration) refers to stm32f10x_adc.o(i.ADC_Init) for ADC_Init
    ad.o(i.ADC_Configuration) refers to stm32f10x_rcc.o(i.RCC_ADCCLKConfig) for RCC_ADCCLKConfig
    ad.o(i.ADC_Configuration) refers to stm32f10x_adc.o(i.ADC_RegularChannelConfig) for ADC_RegularChannelConfig
    ad.o(i.ADC_Configuration) refers to stm32f10x_adc.o(i.ADC_DMACmd) for ADC_DMACmd
    ad.o(i.ADC_Configuration) refers to stm32f10x_adc.o(i.ADC_Cmd) for ADC_Cmd
    ad.o(i.ADC_Configuration) refers to stm32f10x_adc.o(i.ADC_ResetCalibration) for ADC_ResetCalibration
    ad.o(i.ADC_Configuration) refers to stm32f10x_adc.o(i.ADC_GetResetCalibrationStatus) for ADC_GetResetCalibrationStatus
    ad.o(i.ADC_Configuration) refers to stm32f10x_adc.o(i.ADC_StartCalibration) for ADC_StartCalibration
    ad.o(i.ADC_Configuration) refers to stm32f10x_adc.o(i.ADC_GetCalibrationStatus) for ADC_GetCalibrationStatus
    ad.o(i.ADC_Configuration) refers to stm32f10x_adc.o(i.ADC_SoftwareStartConvCmd) for ADC_SoftwareStartConvCmd
    ad.o(i.ADC_Configuration) refers to ad.o(.bss) for ADC_ConvertedValue
    ad.o(i.ADC_Filter) refers to ad.o(.bss) for ADC_ConvertedValue
    pwm.o(i.PWMA_Configuration) refers to stm32f10x_rcc.o(i.RCC_APB2PeriphClockCmd) for RCC_APB2PeriphClockCmd
    pwm.o(i.PWMA_Configuration) refers to stm32f10x_gpio.o(i.GPIO_Init) for GPIO_Init
    pwm.o(i.PWMA_Configuration) refers to stm32f10x_tim.o(i.TIM_TimeBaseInit) for TIM_TimeBaseInit
    pwm.o(i.PWMA_Configuration) refers to stm32f10x_tim.o(i.TIM_OC1Init) for TIM_OC1Init
    pwm.o(i.PWMA_Configuration) refers to stm32f10x_tim.o(i.TIM_OC2Init) for TIM_OC2Init
    pwm.o(i.PWMA_Configuration) refers to stm32f10x_tim.o(i.TIM_OC3Init) for TIM_OC3Init
    pwm.o(i.PWMA_Configuration) refers to stm32f10x_tim.o(i.TIM_OC4Init) for TIM_OC4Init
    pwm.o(i.PWMA_Configuration) refers to stm32f10x_tim.o(i.TIM_OC1PreloadConfig) for TIM_OC1PreloadConfig
    pwm.o(i.PWMA_Configuration) refers to stm32f10x_tim.o(i.TIM_OC2PreloadConfig) for TIM_OC2PreloadConfig
    pwm.o(i.PWMA_Configuration) refers to stm32f10x_tim.o(i.TIM_OC3PreloadConfig) for TIM_OC3PreloadConfig
    pwm.o(i.PWMA_Configuration) refers to stm32f10x_tim.o(i.TIM_CtrlPWMOutputs) for TIM_CtrlPWMOutputs
    pwm.o(i.PWMA_Configuration) refers to stm32f10x_tim.o(i.TIM_ARRPreloadConfig) for TIM_ARRPreloadConfig
    pwm.o(i.PWMA_Configuration) refers to stm32f10x_tim.o(i.TIM_Cmd) for TIM_Cmd
    pwm.o(i.PWMB_Configuration) refers to stm32f10x_rcc.o(i.RCC_APB2PeriphClockCmd) for RCC_APB2PeriphClockCmd
    pwm.o(i.PWMB_Configuration) refers to stm32f10x_rcc.o(i.RCC_APB1PeriphClockCmd) for RCC_APB1PeriphClockCmd
    pwm.o(i.PWMB_Configuration) refers to stm32f10x_gpio.o(i.GPIO_Init) for GPIO_Init
    pwm.o(i.PWMB_Configuration) refers to stm32f10x_tim.o(i.TIM_TimeBaseInit) for TIM_TimeBaseInit
    pwm.o(i.PWMB_Configuration) refers to stm32f10x_tim.o(i.TIM_OC1Init) for TIM_OC1Init
    pwm.o(i.PWMB_Configuration) refers to stm32f10x_tim.o(i.TIM_OC2Init) for TIM_OC2Init
    pwm.o(i.PWMB_Configuration) refers to stm32f10x_tim.o(i.TIM_OC3Init) for TIM_OC3Init
    pwm.o(i.PWMB_Configuration) refers to stm32f10x_tim.o(i.TIM_OC1PreloadConfig) for TIM_OC1PreloadConfig
    pwm.o(i.PWMB_Configuration) refers to stm32f10x_tim.o(i.TIM_OC2PreloadConfig) for TIM_OC2PreloadConfig
    pwm.o(i.PWMB_Configuration) refers to stm32f10x_tim.o(i.TIM_OC3PreloadConfig) for TIM_OC3PreloadConfig
    pwm.o(i.PWMB_Configuration) refers to stm32f10x_tim.o(i.TIM_ARRPreloadConfig) for TIM_ARRPreloadConfig
    pwm.o(i.PWMB_Configuration) refers to stm32f10x_tim.o(i.TIM_Cmd) for TIM_Cmd
    pwm.o(i.SetPWMA1) refers to stm32f10x_tim.o(i.TIM_SetCompare1) for TIM_SetCompare1
    pwm.o(i.SetPWMA2) refers to stm32f10x_tim.o(i.TIM_SetCompare2) for TIM_SetCompare2
    pwm.o(i.SetPWMA3) refers to stm32f10x_tim.o(i.TIM_SetCompare3) for TIM_SetCompare3
    pwm.o(i.SetPWMA4) refers to stm32f10x_tim.o(i.TIM_SetCompare4) for TIM_SetCompare4
    pwm.o(i.SetPWMB1) refers to stm32f10x_tim.o(i.TIM_SetCompare1) for TIM_SetCompare1
    pwm.o(i.SetPWMB2) refers to stm32f10x_tim.o(i.TIM_SetCompare2) for TIM_SetCompare2
    pwm.o(i.SetPWMB3) refers to stm32f10x_tim.o(i.TIM_SetCompare3) for TIM_SetCompare3
    iwdg.o(i.IWDG_Config) refers to stm32f10x_iwdg.o(i.IWDG_WriteAccessCmd) for IWDG_WriteAccessCmd
    iwdg.o(i.IWDG_Config) refers to stm32f10x_iwdg.o(i.IWDG_SetPrescaler) for IWDG_SetPrescaler
    iwdg.o(i.IWDG_Config) refers to stm32f10x_iwdg.o(i.IWDG_SetReload) for IWDG_SetReload
    iwdg.o(i.IWDG_Config) refers to stm32f10x_iwdg.o(i.IWDG_ReloadCounter) for IWDG_ReloadCounter
    iwdg.o(i.IWDG_Config) refers to stm32f10x_iwdg.o(i.IWDG_Enable) for IWDG_Enable
    iwdg.o(i.IWDG_Feed) refers to stm32f10x_iwdg.o(i.IWDG_ReloadCounter) for IWDG_ReloadCounter
    tm1638.o(i.TM1638_Clear) refers to tm1638.o(i.TM1638_WriteCmd) for TM1638_WriteCmd
    tm1638.o(i.TM1638_Clear) refers to tm1638.o(i.TM1638_Enable) for TM1638_Enable
    tm1638.o(i.TM1638_Clear) refers to spi1.o(i.SPI1_ReadWriteByte) for SPI1_ReadWriteByte
    tm1638.o(i.TM1638_Clear) refers to tm1638.o(i.TM1638_Disable) for TM1638_Disable
    tm1638.o(i.TM1638_Disable) refers to gpio.o(i.MG_Set) for MG_Set
    tm1638.o(i.TM1638_DisplayBit) refers to tm1638.o(i.TM1638_WriteCmd) for TM1638_WriteCmd
    tm1638.o(i.TM1638_DisplayBit) refers to tm1638.o(i.TM1638_Enable) for TM1638_Enable
    tm1638.o(i.TM1638_DisplayBit) refers to spi1.o(i.SPI1_ReadWriteByte) for SPI1_ReadWriteByte
    tm1638.o(i.TM1638_DisplayBit) refers to tm1638.o(i.TM1638_Disable) for TM1638_Disable
    tm1638.o(i.TM1638_Enable) refers to gpio.o(i.MG_Set) for MG_Set
    tm1638.o(i.TM1638_Init) refers to spi1.o(i.SPI1M_Configuration) for SPI1M_Configuration
    tm1638.o(i.TM1638_Init) refers to gpio.o(i.MG_Output) for MG_Output
    tm1638.o(i.TM1638_Init) refers to tm1638.o(i.TM1638_Disable) for TM1638_Disable
    tm1638.o(i.TM1638_Off) refers to tm1638.o(i.TM1638_WriteCmd) for TM1638_WriteCmd
    tm1638.o(i.TM1638_On) refers to tm1638.o(i.TM1638_WriteCmd) for TM1638_WriteCmd
    tm1638.o(i.TM1638_ReadBytes) refers to tm1638.o(i.TM1638_Enable) for TM1638_Enable
    tm1638.o(i.TM1638_ReadBytes) refers to spi1.o(i.SPI1_Output) for SPI1_Output
    tm1638.o(i.TM1638_ReadBytes) refers to spi1.o(i.SPI1_ReadWriteByte) for SPI1_ReadWriteByte
    tm1638.o(i.TM1638_ReadBytes) refers to spi1.o(i.SPI1_Input) for SPI1_Input
    tm1638.o(i.TM1638_ReadBytes) refers to tm1638.o(i.TM1638_Disable) for TM1638_Disable
    tm1638.o(i.TM1638_ReadKey) refers to tm1638.o(i.TM1638_ReadBytes) for TM1638_ReadBytes
    tm1638.o(i.TM1638_WriteBytes) refers to tm1638.o(i.TM1638_Enable) for TM1638_Enable
    tm1638.o(i.TM1638_WriteBytes) refers to spi1.o(i.SPI1_Output) for SPI1_Output
    tm1638.o(i.TM1638_WriteBytes) refers to spi1.o(i.SPI1_ReadWriteByte) for SPI1_ReadWriteByte
    tm1638.o(i.TM1638_WriteBytes) refers to tm1638.o(i.TM1638_Disable) for TM1638_Disable
    tm1638.o(i.TM1638_WriteCmd) refers to tm1638.o(i.TM1638_Enable) for TM1638_Enable
    tm1638.o(i.TM1638_WriteCmd) refers to spi1.o(i.SPI1_Output) for SPI1_Output
    tm1638.o(i.TM1638_WriteCmd) refers to spi1.o(i.SPI1_ReadWriteByte) for SPI1_ReadWriteByte
    tm1638.o(i.TM1638_WriteCmd) refers to tm1638.o(i.TM1638_Disable) for TM1638_Disable
    lora.o(i.LORA_AskInfo) refers to lora.o(i.LORA_SendData) for LORA_SendData
    lora.o(i.LORA_BaseOnRecv) refers to lora.o(.data) for LoraInfo
    lora.o(i.LORA_BaseOnSendFinish) refers to lora.o(.data) for LoraInfo
    lora.o(i.LORA_Broadcast) refers to lora.o(i.LORA_SendData) for LORA_SendData
    lora.o(i.LORA_ChangeWorkMode) refers to gpio.o(i.MG_Set) for MG_Set
    lora.o(i.LORA_ChangeWorkMode) refers to delay.o(i.delayms) for delayms
    lora.o(i.LORA_ChangeWorkMode) refers to lora.o(.data) for LoraInfo
    lora.o(i.LORA_Configuration) refers to gpio.o(i.MG_RCC) for MG_RCC
    lora.o(i.LORA_Configuration) refers to gpio.o(i.MG_Input) for MG_Input
    lora.o(i.LORA_Configuration) refers to gpio.o(i.MG_Output) for MG_Output
    lora.o(i.LORA_Configuration) refers to usart2.o(i.USART2_Configuration) for USART2_Configuration
    lora.o(i.LORA_Configuration) refers to lora.o(i.LORA_ChangeWorkMode) for LORA_ChangeWorkMode
    lora.o(i.LORA_Configuration) refers to lora.o(i.LORA_SetConfig) for LORA_SetConfig
    lora.o(i.LORA_Configuration) refers to lora.o(i.LORA_BaseOnSendFinish) for LORA_BaseOnSendFinish
    lora.o(i.LORA_Configuration) refers to usart2.o(.data) for USART2_OnSendHandler
    lora.o(i.LORA_Configuration) refers to lora.o(i.LORA_BaseOnRecv) for LORA_BaseOnRecv
    lora.o(i.LORA_Configuration) refers to lora.o(.data) for LoraInfo
    lora.o(i.LORA_GetConfig) refers to lora.o(i.LORA_SendData) for LORA_SendData
    lora.o(i.LORA_GetConfig) refers to lora.o(.data) for LoraInfo
    lora.o(i.LORA_Reset) refers to lora.o(i.LORA_SendData) for LORA_SendData
    lora.o(i.LORA_Send) refers to lora.o(i.LORA_SendData) for LORA_SendData
    lora.o(i.LORA_SendData) refers to lora.o(i.LORA_WaitSend) for LORA_WaitSend
    lora.o(i.LORA_SendData) refers to usart2.o(i.USART2_DMASendWords) for USART2_DMASendWords
    lora.o(i.LORA_SendData) refers to lora.o(.data) for LoraInfo
    lora.o(i.LORA_SendToNode) refers to lora.o(i.LORA_SendData) for LORA_SendData
    lora.o(i.LORA_SetConfig) refers to lora.o(i.LORA_SendData) for LORA_SendData
    lora.o(i.LORA_SetConfig) refers to lora.o(.constdata) for .constdata
    lora.o(i.LORA_WaitRecv) refers to delay.o(i.delayms) for delayms
    lora.o(i.LORA_WaitRecv) refers to lora.o(.data) for LoraInfo
    lora.o(i.LORA_WaitSend) refers to gpio.o(i.MG_Get) for MG_Get
    lora.o(i.LORA_WaitSend) refers to lora.o(.data) for LoraInfo
    lora.o(.data) refers to lora.o(i.LORA_OnRecv) for LORA_OnRecv
    oled.o(i.OLEDCmd) refers to mi2c.o(i.MI2C_Start) for MI2C_Start
    oled.o(i.OLEDCmd) refers to mi2c.o(i.MI2C_Write) for MI2C_Write
    oled.o(i.OLEDCmd) refers to mi2c.o(i.MI2C_GetAck) for MI2C_GetAck
    oled.o(i.OLEDCmd) refers to mi2c.o(i.MI2C_End) for MI2C_End
    oled.o(i.OLEDCmd) refers to oled.o(.data) for oled
    oled.o(i.OLED_CLS) refers to oled.o(i.OLED_Fill) for OLED_Fill
    oled.o(i.OLED_Configuration) refers to mi2c.o(i.MI2C_Init) for MI2C_Init
    oled.o(i.OLED_Configuration) refers to oled.o(i.OLED_Init) for OLED_Init
    oled.o(i.OLED_Configuration) refers to oled.o(i.OLED_ON) for OLED_ON
    oled.o(i.OLED_Configuration) refers to oled.o(i.OLED_CLS) for OLED_CLS
    oled.o(i.OLED_Configuration) refers to oled.o(.data) for oled
    oled.o(i.OLED_Fill) refers to oled.o(i.WriteCmd) for WriteCmd
    oled.o(i.OLED_Fill) refers to oled.o(i.WriteDat) for WriteDat
    oled.o(i.OLED_Init) refers to delay.o(i.delay_ms) for delay_ms
    oled.o(i.OLED_Init) refers to oled.o(i.WriteCmd) for WriteCmd
    oled.o(i.OLED_OFF) refers to oled.o(i.WriteCmd) for WriteCmd
    oled.o(i.OLED_ON) refers to oled.o(i.WriteCmd) for WriteCmd
    oled.o(i.OLED_SetPos) refers to oled.o(i.WriteCmd) for WriteCmd
    oled.o(i.OLED_ShowStr) refers to oled.o(i.OLED_SetPos) for OLED_SetPos
    oled.o(i.OLED_ShowStr) refers to oled.o(i.WriteDat) for WriteDat
    oled.o(i.OLED_ShowStr) refers to oledres.o(.constdata) for F6x8
    oled.o(i.WriteCmd) refers to oled.o(i.OLEDCmd) for OLEDCmd
    oled.o(i.WriteDat) refers to oled.o(i.OLEDCmd) for OLEDCmd
    hw_config.o(i.Enter_LowPowerMode) refers to __2printf.o(.text) for __2printf
    hw_config.o(i.Enter_LowPowerMode) refers to usb_pwr.o(.data) for bDeviceState
    hw_config.o(i.Get_SerialNum) refers to hw_config.o(i.IntToUnicode) for IntToUnicode
    hw_config.o(i.Get_SerialNum) refers to usb_desc.o(.data) for Virtual_Com_Port_StringSerial
    hw_config.o(i.Leave_LowPowerMode) refers to __2printf.o(.text) for __2printf
    hw_config.o(i.Leave_LowPowerMode) refers to usb_init.o(.bss) for Device_Info
    hw_config.o(i.Leave_LowPowerMode) refers to usb_pwr.o(.data) for bDeviceState
    hw_config.o(i.Set_USBClock) refers to stm32f10x_rcc.o(i.RCC_USBCLKConfig) for RCC_USBCLKConfig
    hw_config.o(i.Set_USBClock) refers to stm32f10x_rcc.o(i.RCC_APB1PeriphClockCmd) for RCC_APB1PeriphClockCmd
    hw_config.o(i.USART_Config) refers to _printf_percent.o(.ARM.Collect$$_printf_percent$$00000000) for _printf_percent
    hw_config.o(i.USART_Config) refers to _printf_d.o(.ARM.Collect$$_printf_percent$$00000009) for _printf_d
    hw_config.o(i.USART_Config) refers to _printf_dec.o(.text) for _printf_int_dec
    hw_config.o(i.USART_Config) refers to __2printf.o(.text) for __2printf
    hw_config.o(i.USART_Config) refers to hw_config.o(.bss) for uu_txfifo
    hw_config.o(i.USART_Config) refers to hw_config.o(.data) for USB_USART_RX_STA
    hw_config.o(i.USART_Config) refers to usb_prop.o(.data) for linecoding
    hw_config.o(i.USBWakeUp_IRQHandler) refers to stm32f10x_exti.o(i.EXTI_ClearITPendingBit) for EXTI_ClearITPendingBit
    hw_config.o(i.USB_Cable_Config) refers to __2printf.o(.text) for __2printf
    hw_config.o(i.USB_Interrupts_Config) refers to stm32f10x_exti.o(i.EXTI_ClearITPendingBit) for EXTI_ClearITPendingBit
    hw_config.o(i.USB_Interrupts_Config) refers to stm32f10x_exti.o(i.EXTI_Init) for EXTI_Init
    hw_config.o(i.USB_Interrupts_Config) refers to misc.o(i.NVIC_Init) for NVIC_Init
    hw_config.o(i.USB_LP_CAN1_RX0_IRQHandler) refers to usb_istr.o(i.USB_Istr) for USB_Istr
    hw_config.o(i.USB_Port_Set) refers to stm32f10x_rcc.o(i.RCC_APB2PeriphClockCmd) for RCC_APB2PeriphClockCmd
    hw_config.o(i.USB_Port_Set) refers to gpio.o(i.MG_Set) for MG_Set
    hw_config.o(i.USB_To_USART_Send_Data) refers to hw_config.o(.data) for USB_USART_RX_STA
    hw_config.o(i.USB_To_USART_Send_Data) refers to hw_config.o(.bss) for USB_USART_RX_BUF
    hw_config.o(i.USB_USART_SendData) refers to hw_config.o(.bss) for uu_txfifo
    hw_config.o(i.usb_printf) refers to vsprintf.o(.text) for vsprintf
    hw_config.o(i.usb_printf) refers to strlen.o(.text) for strlen
    hw_config.o(i.usb_printf) refers to hw_config.o(i.USB_USART_SendData) for USB_USART_SendData
    hw_config.o(i.usb_printf) refers to hw_config.o(.bss) for USART_PRINTF_Buffer
    usb_endp.o(i.EP1_IN_Callback) refers to usb_mem.o(i.UserToPMABufferCopy) for UserToPMABufferCopy
    usb_endp.o(i.EP1_IN_Callback) refers to usb_regs.o(i.SetEPTxCount) for SetEPTxCount
    usb_endp.o(i.EP1_IN_Callback) refers to usb_regs.o(i.SetEPTxValid) for SetEPTxValid
    usb_endp.o(i.EP1_IN_Callback) refers to hw_config.o(.bss) for uu_txfifo
    usb_endp.o(i.EP3_OUT_Callback) refers to usb_sil.o(i.USB_SIL_Read) for USB_SIL_Read
    usb_endp.o(i.EP3_OUT_Callback) refers to hw_config.o(i.USB_To_USART_Send_Data) for USB_To_USART_Send_Data
    usb_endp.o(i.EP3_OUT_Callback) refers to usb_regs.o(i.SetEPRxValid) for SetEPRxValid
    usb_endp.o(i.EP3_OUT_Callback) refers to usb_endp.o(.bss) for USB_Rx_Buffer
    usb_endp.o(i.SOF_Callback) refers to usb_endp.o(i.EP1_IN_Callback) for EP1_IN_Callback
    usb_endp.o(i.SOF_Callback) refers to usb_pwr.o(.data) for bDeviceState
    usb_endp.o(i.SOF_Callback) refers to usb_endp.o(.data) for FrameCount
    usb_istr.o(i.USB_Istr) refers to usb_endp.o(i.SOF_Callback) for SOF_Callback
    usb_istr.o(i.USB_Istr) refers to usb_int.o(i.CTR_LP) for CTR_LP
    usb_istr.o(i.USB_Istr) refers to usb_pwr.o(i.Resume) for Resume
    usb_istr.o(i.USB_Istr) refers to usb_pwr.o(i.Suspend) for Suspend
    usb_istr.o(i.USB_Istr) refers to usb_istr.o(.data) for wIstr
    usb_istr.o(i.USB_Istr) refers to usb_init.o(.data) for wInterrupt_Mask
    usb_istr.o(i.USB_Istr) refers to usb_prop.o(.data) for Device_Property
    usb_istr.o(i.USB_Istr) refers to usb_pwr.o(.data) for fSuspendEnabled
    usb_istr.o(.data) refers to usb_endp.o(i.EP1_IN_Callback) for EP1_IN_Callback
    usb_istr.o(.data) refers to usb_core.o(i.NOP_Process) for NOP_Process
    usb_istr.o(.data) refers to usb_endp.o(i.EP3_OUT_Callback) for EP3_OUT_Callback
    usb_prop.o(i.Virtual_Com_Port_Data_Setup) refers to usb_init.o(.data) for pInformation
    usb_prop.o(i.Virtual_Com_Port_Data_Setup) refers to usb_prop.o(i.Virtual_Com_Port_GetLineCoding) for Virtual_Com_Port_GetLineCoding
    usb_prop.o(i.Virtual_Com_Port_Data_Setup) refers to usb_prop.o(i.Virtual_Com_Port_SetLineCoding) for Virtual_Com_Port_SetLineCoding
    usb_prop.o(i.Virtual_Com_Port_Data_Setup) refers to usb_prop.o(.data) for Request
    usb_prop.o(i.Virtual_Com_Port_GetConfigDescriptor) refers to usb_core.o(i.Standard_GetDescriptorData) for Standard_GetDescriptorData
    usb_prop.o(i.Virtual_Com_Port_GetConfigDescriptor) refers to usb_prop.o(.data) for Config_Descriptor
    usb_prop.o(i.Virtual_Com_Port_GetDeviceDescriptor) refers to usb_core.o(i.Standard_GetDescriptorData) for Standard_GetDescriptorData
    usb_prop.o(i.Virtual_Com_Port_GetDeviceDescriptor) refers to usb_prop.o(.data) for Device_Descriptor
    usb_prop.o(i.Virtual_Com_Port_GetLineCoding) refers to usb_init.o(.data) for pInformation
    usb_prop.o(i.Virtual_Com_Port_GetLineCoding) refers to usb_prop.o(.data) for linecoding
    usb_prop.o(i.Virtual_Com_Port_GetStringDescriptor) refers to usb_core.o(i.Standard_GetDescriptorData) for Standard_GetDescriptorData
    usb_prop.o(i.Virtual_Com_Port_GetStringDescriptor) refers to usb_init.o(.data) for pInformation
    usb_prop.o(i.Virtual_Com_Port_GetStringDescriptor) refers to usb_prop.o(.data) for String_Descriptor
    usb_prop.o(i.Virtual_Com_Port_NoData_Setup) refers to usb_init.o(.data) for pInformation
    usb_prop.o(i.Virtual_Com_Port_Reset) refers to usb_regs.o(i.SetBTABLE) for SetBTABLE
    usb_prop.o(i.Virtual_Com_Port_Reset) refers to usb_regs.o(i.SetEPType) for SetEPType
    usb_prop.o(i.Virtual_Com_Port_Reset) refers to usb_regs.o(i.SetEPTxStatus) for SetEPTxStatus
    usb_prop.o(i.Virtual_Com_Port_Reset) refers to usb_regs.o(i.SetEPRxAddr) for SetEPRxAddr
    usb_prop.o(i.Virtual_Com_Port_Reset) refers to usb_regs.o(i.SetEPTxAddr) for SetEPTxAddr
    usb_prop.o(i.Virtual_Com_Port_Reset) refers to usb_regs.o(i.Clear_Status_Out) for Clear_Status_Out
    usb_prop.o(i.Virtual_Com_Port_Reset) refers to usb_regs.o(i.SetEPRxCount) for SetEPRxCount
    usb_prop.o(i.Virtual_Com_Port_Reset) refers to usb_regs.o(i.SetEPRxValid) for SetEPRxValid
    usb_prop.o(i.Virtual_Com_Port_Reset) refers to usb_regs.o(i.SetEPRxStatus) for SetEPRxStatus
    usb_prop.o(i.Virtual_Com_Port_Reset) refers to usb_core.o(i.SetDeviceAddress) for SetDeviceAddress
    usb_prop.o(i.Virtual_Com_Port_Reset) refers to usb_init.o(.data) for pInformation
    usb_prop.o(i.Virtual_Com_Port_Reset) refers to usb_desc.o(.constdata) for Virtual_Com_Port_ConfigDescriptor
    usb_prop.o(i.Virtual_Com_Port_Reset) refers to usb_prop.o(.data) for Device_Property
    usb_prop.o(i.Virtual_Com_Port_Reset) refers to usb_pwr.o(.data) for bDeviceState
    usb_prop.o(i.Virtual_Com_Port_SetConfiguration) refers to usb_init.o(.bss) for Device_Info
    usb_prop.o(i.Virtual_Com_Port_SetConfiguration) refers to usb_pwr.o(.data) for bDeviceState
    usb_prop.o(i.Virtual_Com_Port_SetDeviceAddress) refers to usb_pwr.o(.data) for bDeviceState
    usb_prop.o(i.Virtual_Com_Port_SetLineCoding) refers to usb_init.o(.data) for pInformation
    usb_prop.o(i.Virtual_Com_Port_SetLineCoding) refers to usb_prop.o(.data) for linecoding
    usb_prop.o(i.Virtual_Com_Port_Status_In) refers to hw_config.o(i.USART_Config) for USART_Config
    usb_prop.o(i.Virtual_Com_Port_Status_In) refers to usb_prop.o(.data) for Request
    usb_prop.o(i.Virtual_Com_Port_init) refers to hw_config.o(i.Get_SerialNum) for Get_SerialNum
    usb_prop.o(i.Virtual_Com_Port_init) refers to usb_pwr.o(i.PowerOn) for PowerOn
    usb_prop.o(i.Virtual_Com_Port_init) refers to usb_sil.o(i.USB_SIL_Init) for USB_SIL_Init
    usb_prop.o(i.Virtual_Com_Port_init) refers to usb_init.o(.data) for pInformation
    usb_prop.o(i.Virtual_Com_Port_init) refers to usb_pwr.o(.data) for bDeviceState
    usb_prop.o(.data) refers to usb_prop.o(i.Virtual_Com_Port_init) for Virtual_Com_Port_init
    usb_prop.o(.data) refers to usb_prop.o(i.Virtual_Com_Port_Reset) for Virtual_Com_Port_Reset
    usb_prop.o(.data) refers to usb_prop.o(i.Virtual_Com_Port_Status_In) for Virtual_Com_Port_Status_In
    usb_prop.o(.data) refers to usb_prop.o(i.Virtual_Com_Port_Status_Out) for Virtual_Com_Port_Status_Out
    usb_prop.o(.data) refers to usb_prop.o(i.Virtual_Com_Port_Data_Setup) for Virtual_Com_Port_Data_Setup
    usb_prop.o(.data) refers to usb_prop.o(i.Virtual_Com_Port_NoData_Setup) for Virtual_Com_Port_NoData_Setup
    usb_prop.o(.data) refers to usb_prop.o(i.Virtual_Com_Port_Get_Interface_Setting) for Virtual_Com_Port_Get_Interface_Setting
    usb_prop.o(.data) refers to usb_prop.o(i.Virtual_Com_Port_GetDeviceDescriptor) for Virtual_Com_Port_GetDeviceDescriptor
    usb_prop.o(.data) refers to usb_prop.o(i.Virtual_Com_Port_GetConfigDescriptor) for Virtual_Com_Port_GetConfigDescriptor
    usb_prop.o(.data) refers to usb_prop.o(i.Virtual_Com_Port_GetStringDescriptor) for Virtual_Com_Port_GetStringDescriptor
    usb_prop.o(.data) refers to usb_core.o(i.NOP_Process) for NOP_Process
    usb_prop.o(.data) refers to usb_prop.o(i.Virtual_Com_Port_SetConfiguration) for Virtual_Com_Port_SetConfiguration
    usb_prop.o(.data) refers to usb_prop.o(i.Virtual_Com_Port_SetDeviceAddress) for Virtual_Com_Port_SetDeviceAddress
    usb_prop.o(.data) refers to usb_desc.o(.constdata) for Virtual_Com_Port_DeviceDescriptor
    usb_prop.o(.data) refers to usb_desc.o(.data) for Virtual_Com_Port_StringSerial
    usb_pwr.o(i.PowerOff) refers to hw_config.o(i.USB_Cable_Config) for USB_Cable_Config
    usb_pwr.o(i.PowerOn) refers to hw_config.o(i.USB_Cable_Config) for USB_Cable_Config
    usb_pwr.o(i.PowerOn) refers to usb_init.o(.data) for wInterrupt_Mask
    usb_pwr.o(i.Resume) refers to usb_pwr.o(i.Resume_Init) for Resume_Init
    usb_pwr.o(i.Resume) refers to usb_pwr.o(.data) for ResumeS
    usb_pwr.o(i.Resume_Init) refers to hw_config.o(i.Leave_LowPowerMode) for Leave_LowPowerMode
    usb_pwr.o(i.Suspend) refers to hw_config.o(i.Enter_LowPowerMode) for Enter_LowPowerMode
    usb_pwr.o(i.Suspend) refers to usb_pwr.o(.bss) for EP
    usb_core.o(i.DataStageIn) refers to usb_regs.o(i.GetEPTxAddr) for GetEPTxAddr
    usb_core.o(i.DataStageIn) refers to usb_mem.o(i.UserToPMABufferCopy) for UserToPMABufferCopy
    usb_core.o(i.DataStageIn) refers to usb_regs.o(i.SetEPTxCount) for SetEPTxCount
    usb_core.o(i.DataStageIn) refers to usb_init.o(.data) for pInformation
    usb_core.o(i.DataStageIn) refers to usb_core.o(.data) for Data_Mul_MaxPacketSize
    usb_core.o(i.DataStageIn) refers to usb_int.o(.data) for SaveTState
    usb_core.o(i.DataStageOut) refers to usb_regs.o(i.GetEPRxAddr) for GetEPRxAddr
    usb_core.o(i.DataStageOut) refers to usb_mem.o(i.PMAToUserBufferCopy) for PMAToUserBufferCopy
    usb_core.o(i.DataStageOut) refers to usb_regs.o(i.SetEPTxCount) for SetEPTxCount
    usb_core.o(i.DataStageOut) refers to usb_init.o(.data) for pInformation
    usb_core.o(i.DataStageOut) refers to usb_int.o(.data) for SaveRState
    usb_core.o(i.Data_Setup0) refers to usb_core.o(i.DataStageIn) for DataStageIn
    usb_core.o(i.Data_Setup0) refers to usb_init.o(.data) for pInformation
    usb_core.o(i.Data_Setup0) refers to usb_core.o(i.Standard_GetStatus) for Standard_GetStatus
    usb_core.o(i.Data_Setup0) refers to usb_prop.o(.data) for Device_Table
    usb_core.o(i.Data_Setup0) refers to usb_core.o(i.Standard_GetConfiguration) for Standard_GetConfiguration
    usb_core.o(i.Data_Setup0) refers to usb_core.o(i.Standard_GetInterface) for Standard_GetInterface
    usb_core.o(i.Data_Setup0) refers to usb_core.o(.data) for Data_Mul_MaxPacketSize
    usb_core.o(i.Data_Setup0) refers to usb_int.o(.data) for SaveRState
    usb_core.o(i.In0_Process) refers to usb_core.o(i.DataStageIn) for DataStageIn
    usb_core.o(i.In0_Process) refers to usb_core.o(i.SetDeviceAddress) for SetDeviceAddress
    usb_core.o(i.In0_Process) refers to usb_core.o(i.Post0_Process) for Post0_Process
    usb_core.o(i.In0_Process) refers to usb_init.o(.data) for pInformation
    usb_core.o(i.NoData_Setup0) refers to usb_core.o(i.Standard_SetConfiguration) for Standard_SetConfiguration
    usb_core.o(i.NoData_Setup0) refers to usb_core.o(i.Standard_SetDeviceFeature) for Standard_SetDeviceFeature
    usb_core.o(i.NoData_Setup0) refers to usb_core.o(i.Standard_ClearFeature) for Standard_ClearFeature
    usb_core.o(i.NoData_Setup0) refers to usb_core.o(i.Standard_SetInterface) for Standard_SetInterface
    usb_core.o(i.NoData_Setup0) refers to usb_core.o(i.Standard_SetEndPointFeature) for Standard_SetEndPointFeature
    usb_core.o(i.NoData_Setup0) refers to usb_init.o(.data) for pInformation
    usb_core.o(i.NoData_Setup0) refers to usb_int.o(.data) for SaveTState
    usb_core.o(i.Out0_Process) refers to usb_core.o(i.DataStageOut) for DataStageOut
    usb_core.o(i.Out0_Process) refers to usb_core.o(i.Post0_Process) for Post0_Process
    usb_core.o(i.Out0_Process) refers to usb_init.o(.data) for pInformation
    usb_core.o(i.Post0_Process) refers to usb_regs.o(i.SetEPRxCount) for SetEPRxCount
    usb_core.o(i.Post0_Process) refers to usb_prop.o(.data) for Device_Property
    usb_core.o(i.Post0_Process) refers to usb_init.o(.data) for pInformation
    usb_core.o(i.Post0_Process) refers to usb_int.o(.data) for SaveRState
    usb_core.o(i.SetDeviceAddress) refers to usb_prop.o(.data) for Device_Table
    usb_core.o(i.Setup0_Process) refers to usb_regs.o(i.ByteSwap) for ByteSwap
    usb_core.o(i.Setup0_Process) refers to usb_core.o(i.NoData_Setup0) for NoData_Setup0
    usb_core.o(i.Setup0_Process) refers to usb_core.o(i.Data_Setup0) for Data_Setup0
    usb_core.o(i.Setup0_Process) refers to usb_core.o(i.Post0_Process) for Post0_Process
    usb_core.o(i.Setup0_Process) refers to usb_init.o(.data) for pInformation
    usb_core.o(i.Standard_ClearFeature) refers to usb_regs.o(i.ClearDTOG_TX) for ClearDTOG_TX
    usb_core.o(i.Standard_ClearFeature) refers to usb_regs.o(i.SetEPTxStatus) for SetEPTxStatus
    usb_core.o(i.Standard_ClearFeature) refers to usb_regs.o(i.SetEPRxCount) for SetEPRxCount
    usb_core.o(i.Standard_ClearFeature) refers to usb_regs.o(i.ClearDTOG_RX) for ClearDTOG_RX
    usb_core.o(i.Standard_ClearFeature) refers to usb_init.o(.data) for pInformation
    usb_core.o(i.Standard_ClearFeature) refers to usb_prop.o(.data) for Device_Table
    usb_core.o(i.Standard_GetConfiguration) refers to usb_init.o(.data) for pInformation
    usb_core.o(i.Standard_GetDescriptorData) refers to usb_init.o(.data) for pInformation
    usb_core.o(i.Standard_GetInterface) refers to usb_init.o(.data) for pInformation
    usb_core.o(i.Standard_GetStatus) refers to usb_init.o(.data) for pInformation
    usb_core.o(i.Standard_GetStatus) refers to usb_core.o(.data) for StatusInfo
    usb_core.o(i.Standard_SetConfiguration) refers to usb_init.o(.data) for pInformation
    usb_core.o(i.Standard_SetConfiguration) refers to usb_prop.o(.data) for Device_Table
    usb_core.o(i.Standard_SetDeviceFeature) refers to usb_init.o(.data) for pInformation
    usb_core.o(i.Standard_SetEndPointFeature) refers to usb_init.o(.data) for pInformation
    usb_core.o(i.Standard_SetEndPointFeature) refers to usb_prop.o(.data) for Device_Table
    usb_core.o(i.Standard_SetInterface) refers to usb_init.o(.data) for pInformation
    usb_init.o(i.USB_Init) refers to usb_init.o(.bss) for Device_Info
    usb_init.o(i.USB_Init) refers to usb_init.o(.data) for pInformation
    usb_init.o(i.USB_Init) refers to usb_prop.o(.data) for Device_Property
    usb_int.o(i.CTR_HP) refers to usb_istr.o(.data) for wIstr
    usb_int.o(i.CTR_HP) refers to usb_init.o(.data) for EPindex
    usb_int.o(i.CTR_LP) refers to usb_core.o(i.In0_Process) for In0_Process
    usb_int.o(i.CTR_LP) refers to usb_core.o(i.Setup0_Process) for Setup0_Process
    usb_int.o(i.CTR_LP) refers to usb_core.o(i.Out0_Process) for Out0_Process
    usb_int.o(i.CTR_LP) refers to usb_istr.o(.data) for wIstr
    usb_int.o(i.CTR_LP) refers to usb_init.o(.data) for EPindex
    usb_int.o(i.CTR_LP) refers to usb_int.o(.data) for SaveRState
    usb_regs.o(i.SetDouBleBuffEPStall) refers to usb_regs.o(i.GetENDPOINT) for GetENDPOINT
    usb_sil.o(i.USB_SIL_Init) refers to usb_init.o(.data) for wInterrupt_Mask
    usb_sil.o(i.USB_SIL_Read) refers to usb_regs.o(i.GetEPRxCount) for GetEPRxCount
    usb_sil.o(i.USB_SIL_Read) refers to usb_regs.o(i.GetEPRxAddr) for GetEPRxAddr
    usb_sil.o(i.USB_SIL_Read) refers to usb_mem.o(i.PMAToUserBufferCopy) for PMAToUserBufferCopy
    usb_sil.o(i.USB_SIL_Write) refers to usb_regs.o(i.GetEPTxAddr) for GetEPTxAddr
    usb_sil.o(i.USB_SIL_Write) refers to usb_mem.o(i.UserToPMABufferCopy) for UserToPMABufferCopy
    usb_sil.o(i.USB_SIL_Write) refers to usb_regs.o(i.SetEPTxCount) for SetEPTxCount
    startup_stm32f10x_md.o(STACK) refers (Special) to heapauxi.o(.text) for __use_two_region_memory
    startup_stm32f10x_md.o(HEAP) refers (Special) to heapauxi.o(.text) for __use_two_region_memory
    startup_stm32f10x_md.o(RESET) refers (Special) to heapauxi.o(.text) for __use_two_region_memory
    startup_stm32f10x_md.o(RESET) refers to startup_stm32f10x_md.o(STACK) for __initial_sp
    startup_stm32f10x_md.o(RESET) refers to startup_stm32f10x_md.o(.text) for Reset_Handler
    startup_stm32f10x_md.o(RESET) refers to usart3.o(i.DMA1_Channel2_IRQHandler) for DMA1_Channel2_IRQHandler
    startup_stm32f10x_md.o(RESET) refers to usart1.o(i.DMA1_Channel4_IRQHandler) for DMA1_Channel4_IRQHandler
    startup_stm32f10x_md.o(RESET) refers to usart2.o(i.DMA1_Channel7_IRQHandler) for DMA1_Channel7_IRQHandler
    startup_stm32f10x_md.o(RESET) refers to hw_config.o(i.USB_LP_CAN1_RX0_IRQHandler) for USB_LP_CAN1_RX0_IRQHandler
    startup_stm32f10x_md.o(RESET) refers to usart1.o(i.USART1_IRQHandler) for USART1_IRQHandler
    startup_stm32f10x_md.o(RESET) refers to usart2.o(i.USART2_IRQHandler) for USART2_IRQHandler
    startup_stm32f10x_md.o(RESET) refers to usart3.o(i.USART3_IRQHandler) for USART3_IRQHandler
    startup_stm32f10x_md.o(RESET) refers to hw_config.o(i.USBWakeUp_IRQHandler) for USBWakeUp_IRQHandler
    startup_stm32f10x_md.o(.text) refers (Special) to heapauxi.o(.text) for __use_two_region_memory
    startup_stm32f10x_md.o(.text) refers to system_stm32f10x.o(i.SystemInit) for SystemInit
    startup_stm32f10x_md.o(.text) refers to __main.o(!!!main) for __main
    startup_stm32f10x_md.o(.text) refers to startup_stm32f10x_md.o(HEAP) for Heap_Mem
    startup_stm32f10x_md.o(.text) refers to startup_stm32f10x_md.o(STACK) for Stack_Mem
    system_stm32f10x.o(i.SetSysClock) refers to system_stm32f10x.o(i.SetSysClockTo72) for SetSysClockTo72
    system_stm32f10x.o(i.SystemCoreClockUpdate) refers to system_stm32f10x.o(.data) for SystemCoreClock
    system_stm32f10x.o(i.SystemInit) refers to system_stm32f10x.o(i.SetSysClock) for SetSysClock
    stm32f10x_adc.o(i.ADC_DeInit) refers to stm32f10x_rcc.o(i.RCC_APB2PeriphResetCmd) for RCC_APB2PeriphResetCmd
    stm32f10x_flash.o(i.FLASH_EnableWriteProtection) refers to stm32f10x_flash.o(i.FLASH_WaitForLastOperation) for FLASH_WaitForLastOperation
    stm32f10x_flash.o(i.FLASH_EraseAllBank1Pages) refers to stm32f10x_flash.o(i.FLASH_WaitForLastBank1Operation) for FLASH_WaitForLastBank1Operation
    stm32f10x_flash.o(i.FLASH_EraseAllPages) refers to stm32f10x_flash.o(i.FLASH_WaitForLastOperation) for FLASH_WaitForLastOperation
    stm32f10x_flash.o(i.FLASH_EraseOptionBytes) refers to stm32f10x_flash.o(i.FLASH_GetReadOutProtectionStatus) for FLASH_GetReadOutProtectionStatus
    stm32f10x_flash.o(i.FLASH_EraseOptionBytes) refers to stm32f10x_flash.o(i.FLASH_WaitForLastOperation) for FLASH_WaitForLastOperation
    stm32f10x_flash.o(i.FLASH_ErasePage) refers to stm32f10x_flash.o(i.FLASH_WaitForLastOperation) for FLASH_WaitForLastOperation
    stm32f10x_flash.o(i.FLASH_ProgramHalfWord) refers to stm32f10x_flash.o(i.FLASH_WaitForLastOperation) for FLASH_WaitForLastOperation
    stm32f10x_flash.o(i.FLASH_ProgramOptionByteData) refers to stm32f10x_flash.o(i.FLASH_WaitForLastOperation) for FLASH_WaitForLastOperation
    stm32f10x_flash.o(i.FLASH_ProgramWord) refers to stm32f10x_flash.o(i.FLASH_WaitForLastOperation) for FLASH_WaitForLastOperation
    stm32f10x_flash.o(i.FLASH_ReadOutProtection) refers to stm32f10x_flash.o(i.FLASH_WaitForLastOperation) for FLASH_WaitForLastOperation
    stm32f10x_flash.o(i.FLASH_UserOptionByteConfig) refers to stm32f10x_flash.o(i.FLASH_WaitForLastOperation) for FLASH_WaitForLastOperation
    stm32f10x_flash.o(i.FLASH_WaitForLastBank1Operation) refers to stm32f10x_flash.o(i.FLASH_GetBank1Status) for FLASH_GetBank1Status
    stm32f10x_flash.o(i.FLASH_WaitForLastOperation) refers to stm32f10x_flash.o(i.FLASH_GetBank1Status) for FLASH_GetBank1Status
    stm32f10x_gpio.o(i.GPIO_AFIODeInit) refers to stm32f10x_rcc.o(i.RCC_APB2PeriphResetCmd) for RCC_APB2PeriphResetCmd
    stm32f10x_gpio.o(i.GPIO_DeInit) refers to stm32f10x_rcc.o(i.RCC_APB2PeriphResetCmd) for RCC_APB2PeriphResetCmd
    stm32f10x_rcc.o(i.RCC_GetClocksFreq) refers to stm32f10x_rcc.o(.data) for APBAHBPrescTable
    stm32f10x_rcc.o(i.RCC_WaitForHSEStartUp) refers to stm32f10x_rcc.o(i.RCC_GetFlagStatus) for RCC_GetFlagStatus
    stm32f10x_spi.o(i.I2S_Init) refers to stm32f10x_rcc.o(i.RCC_GetClocksFreq) for RCC_GetClocksFreq
    stm32f10x_spi.o(i.SPI_I2S_DeInit) refers to stm32f10x_rcc.o(i.RCC_APB2PeriphResetCmd) for RCC_APB2PeriphResetCmd
    stm32f10x_spi.o(i.SPI_I2S_DeInit) refers to stm32f10x_rcc.o(i.RCC_APB1PeriphResetCmd) for RCC_APB1PeriphResetCmd
    stm32f10x_tim.o(i.TIM_DeInit) refers to stm32f10x_rcc.o(i.RCC_APB2PeriphResetCmd) for RCC_APB2PeriphResetCmd
    stm32f10x_tim.o(i.TIM_DeInit) refers to stm32f10x_rcc.o(i.RCC_APB1PeriphResetCmd) for RCC_APB1PeriphResetCmd
    stm32f10x_tim.o(i.TIM_ETRClockMode1Config) refers to stm32f10x_tim.o(i.TIM_ETRConfig) for TIM_ETRConfig
    stm32f10x_tim.o(i.TIM_ETRClockMode2Config) refers to stm32f10x_tim.o(i.TIM_ETRConfig) for TIM_ETRConfig
    stm32f10x_tim.o(i.TIM_ICInit) refers to stm32f10x_tim.o(i.TI1_Config) for TI1_Config
    stm32f10x_tim.o(i.TIM_ICInit) refers to stm32f10x_tim.o(i.TIM_SetIC1Prescaler) for TIM_SetIC1Prescaler
    stm32f10x_tim.o(i.TIM_ICInit) refers to stm32f10x_tim.o(i.TI2_Config) for TI2_Config
    stm32f10x_tim.o(i.TIM_ICInit) refers to stm32f10x_tim.o(i.TIM_SetIC2Prescaler) for TIM_SetIC2Prescaler
    stm32f10x_tim.o(i.TIM_ICInit) refers to stm32f10x_tim.o(i.TI3_Config) for TI3_Config
    stm32f10x_tim.o(i.TIM_ICInit) refers to stm32f10x_tim.o(i.TIM_SetIC3Prescaler) for TIM_SetIC3Prescaler
    stm32f10x_tim.o(i.TIM_ICInit) refers to stm32f10x_tim.o(i.TI4_Config) for TI4_Config
    stm32f10x_tim.o(i.TIM_ICInit) refers to stm32f10x_tim.o(i.TIM_SetIC4Prescaler) for TIM_SetIC4Prescaler
    stm32f10x_tim.o(i.TIM_ITRxExternalClockConfig) refers to stm32f10x_tim.o(i.TIM_SelectInputTrigger) for TIM_SelectInputTrigger
    stm32f10x_tim.o(i.TIM_PWMIConfig) refers to stm32f10x_tim.o(i.TI1_Config) for TI1_Config
    stm32f10x_tim.o(i.TIM_PWMIConfig) refers to stm32f10x_tim.o(i.TIM_SetIC1Prescaler) for TIM_SetIC1Prescaler
    stm32f10x_tim.o(i.TIM_PWMIConfig) refers to stm32f10x_tim.o(i.TI2_Config) for TI2_Config
    stm32f10x_tim.o(i.TIM_PWMIConfig) refers to stm32f10x_tim.o(i.TIM_SetIC2Prescaler) for TIM_SetIC2Prescaler
    stm32f10x_tim.o(i.TIM_TIxExternalClockConfig) refers to stm32f10x_tim.o(i.TI2_Config) for TI2_Config
    stm32f10x_tim.o(i.TIM_TIxExternalClockConfig) refers to stm32f10x_tim.o(i.TI1_Config) for TI1_Config
    stm32f10x_tim.o(i.TIM_TIxExternalClockConfig) refers to stm32f10x_tim.o(i.TIM_SelectInputTrigger) for TIM_SelectInputTrigger
    stm32f10x_usart.o(i.USART_DeInit) refers to stm32f10x_rcc.o(i.RCC_APB2PeriphResetCmd) for RCC_APB2PeriphResetCmd
    stm32f10x_usart.o(i.USART_DeInit) refers to stm32f10x_rcc.o(i.RCC_APB1PeriphResetCmd) for RCC_APB1PeriphResetCmd
    stm32f10x_usart.o(i.USART_Init) refers to stm32f10x_rcc.o(i.RCC_GetClocksFreq) for RCC_GetClocksFreq
    use_no_semi_2.o(.text) refers (Special) to use_no_semi.o(.text) for __use_no_semihosting_swi
    vsprintf.o(.text) refers (Special) to _printf_a.o(.ARM.Collect$$_printf_percent$$00000006) for _printf_a
    vsprintf.o(.text) refers (Special) to _printf_c.o(.ARM.Collect$$_printf_percent$$00000013) for _printf_c
    vsprintf.o(.text) refers (Special) to _printf_charcount.o(.text) for _printf_charcount
    vsprintf.o(.text) refers (Special) to _printf_d.o(.ARM.Collect$$_printf_percent$$00000009) for _printf_d
    vsprintf.o(.text) refers (Special) to _printf_e.o(.ARM.Collect$$_printf_percent$$00000004) for _printf_e
    vsprintf.o(.text) refers (Special) to _printf_f.o(.ARM.Collect$$_printf_percent$$00000003) for _printf_f
    vsprintf.o(.text) refers (Special) to printf1.o(x$fpl$printf1) for _printf_fp_dec
    vsprintf.o(.text) refers (Special) to printf2.o(x$fpl$printf2) for _printf_fp_hex
    vsprintf.o(.text) refers (Special) to _printf_g.o(.ARM.Collect$$_printf_percent$$00000005) for _printf_g
    vsprintf.o(.text) refers (Special) to _printf_i.o(.ARM.Collect$$_printf_percent$$00000008) for _printf_i
    vsprintf.o(.text) refers (Special) to _printf_dec.o(.text) for _printf_int_dec
    vsprintf.o(.text) refers (Special) to _printf_l.o(.ARM.Collect$$_printf_percent$$00000012) for _printf_l
    vsprintf.o(.text) refers (Special) to _printf_lc.o(.ARM.Collect$$_printf_percent$$00000015) for _printf_lc
    vsprintf.o(.text) refers (Special) to _printf_ll.o(.ARM.Collect$$_printf_percent$$00000007) for _printf_ll
    vsprintf.o(.text) refers (Special) to _printf_lld.o(.ARM.Collect$$_printf_percent$$0000000E) for _printf_lld
    vsprintf.o(.text) refers (Special) to _printf_lli.o(.ARM.Collect$$_printf_percent$$0000000D) for _printf_lli
    vsprintf.o(.text) refers (Special) to _printf_llo.o(.ARM.Collect$$_printf_percent$$00000010) for _printf_llo
    vsprintf.o(.text) refers (Special) to _printf_llu.o(.ARM.Collect$$_printf_percent$$0000000F) for _printf_llu
    vsprintf.o(.text) refers (Special) to _printf_llx.o(.ARM.Collect$$_printf_percent$$00000011) for _printf_llx
    vsprintf.o(.text) refers (Special) to _printf_longlong_dec.o(.text) for _printf_longlong_dec
    vsprintf.o(.text) refers (Special) to _printf_hex_int_ll_ptr.o(.text) for _printf_longlong_hex
    vsprintf.o(.text) refers (Special) to _printf_oct_int_ll.o(.text) for _printf_longlong_oct
    vsprintf.o(.text) refers (Special) to _printf_ls.o(.ARM.Collect$$_printf_percent$$00000016) for _printf_ls
    vsprintf.o(.text) refers (Special) to _printf_n.o(.ARM.Collect$$_printf_percent$$00000001) for _printf_n
    vsprintf.o(.text) refers (Special) to _printf_o.o(.ARM.Collect$$_printf_percent$$0000000B) for _printf_o
    vsprintf.o(.text) refers (Special) to _printf_p.o(.ARM.Collect$$_printf_percent$$00000002) for _printf_p
    vsprintf.o(.text) refers (Special) to _printf_percent.o(.ARM.Collect$$_printf_percent$$00000000) for _printf_percent
    vsprintf.o(.text) refers (Special) to _printf_pad.o(.text) for _printf_post_padding
    vsprintf.o(.text) refers (Special) to _printf_s.o(.ARM.Collect$$_printf_percent$$00000014) for _printf_s
    vsprintf.o(.text) refers (Special) to _printf_str.o(.text) for _printf_str
    vsprintf.o(.text) refers (Special) to _printf_truncate.o(.text) for _printf_truncate_signed
    vsprintf.o(.text) refers (Special) to _printf_u.o(.ARM.Collect$$_printf_percent$$0000000A) for _printf_u
    vsprintf.o(.text) refers (Special) to _printf_wctomb.o(.text) for _printf_wctomb
    vsprintf.o(.text) refers (Special) to _printf_x.o(.ARM.Collect$$_printf_percent$$0000000C) for _printf_x
    vsprintf.o(.text) refers to _printf_char_common.o(.text) for _printf_char_common
    vsprintf.o(.text) refers to _sputc.o(.text) for _sputc
    __2printf.o(.text) refers to _printf_char_file.o(.text) for _printf_char_file
    __2printf.o(.text) refers to bstring.o(.data) for __stdout
    noretval__2printf.o(.text) refers to _printf_char_file.o(.text) for _printf_char_file
    noretval__2printf.o(.text) refers to bstring.o(.data) for __stdout
    __printf.o(.text) refers to _printf_percent.o(.ARM.Collect$$_printf_percent$$00000000) for _printf_percent
    _printf_dec.o(.text) refers (Weak) to _printf_truncate.o(.text) for _printf_truncate_signed
    _printf_dec.o(.text) refers (Weak) to _printf_truncate.o(.text) for _printf_truncate_unsigned
    _printf_dec.o(.text) refers to _printf_intcommon.o(.text) for _printf_int_common
    __printf_flags.o(.text) refers to _printf_percent.o(.ARM.Collect$$_printf_percent$$00000000) for _printf_percent
    __printf_flags.o(.text) refers to __printf_flags.o(.constdata) for .constdata
    __printf_ss.o(.text) refers to _printf_percent.o(.ARM.Collect$$_printf_percent$$00000000) for _printf_percent
    __printf_flags_ss.o(.text) refers to _printf_percent.o(.ARM.Collect$$_printf_percent$$00000000) for _printf_percent
    __printf_flags_ss.o(.text) refers to __printf_flags_ss.o(.constdata) for .constdata
    __printf_wp.o(.text) refers to __printf_wp.o(i._is_digit) for _is_digit
    __printf_wp.o(.text) refers to _printf_percent.o(.ARM.Collect$$_printf_percent$$00000000) for _printf_percent
    __printf_flags_wp.o(.text) refers to __printf_wp.o(i._is_digit) for _is_digit
    __printf_flags_wp.o(.text) refers to _printf_percent.o(.ARM.Collect$$_printf_percent$$00000000) for _printf_percent
    __printf_flags_wp.o(.text) refers to __printf_flags_wp.o(.constdata) for .constdata
    __printf_ss_wp.o(.text) refers to __printf_wp.o(i._is_digit) for _is_digit
    __printf_ss_wp.o(.text) refers to _printf_percent.o(.ARM.Collect$$_printf_percent$$00000000) for _printf_percent
    __printf_flags_ss_wp.o(.text) refers to __printf_wp.o(i._is_digit) for _is_digit
    __printf_flags_ss_wp.o(.text) refers to _printf_percent.o(.ARM.Collect$$_printf_percent$$00000000) for _printf_percent
    __printf_flags_ss_wp.o(.text) refers to __printf_flags_ss_wp.o(.constdata) for .constdata
    _printf_d.o(.ARM.Collect$$_printf_percent$$00000009) refers (Weak) to _printf_dec.o(.text) for _printf_int_dec
    _printf_percent.o(.ARM.Collect$$_printf_percent$$00000000) refers (Special) to _printf_percent_end.o(.ARM.Collect$$_printf_percent$$00000017) for _printf_percent_end
    __main.o(!!!main) refers to __rtentry.o(.ARM.Collect$$rtentry$$00000000) for __rt_entry
    __rtentry.o(.ARM.Collect$$rtentry$$00000000) refers (Special) to __rtentry2.o(.ARM.Collect$$rtentry$$0000000A) for __rt_entry_li
    __rtentry.o(.ARM.Collect$$rtentry$$00000000) refers (Special) to __rtentry2.o(.ARM.Collect$$rtentry$$0000000D) for __rt_entry_main
    __rtentry.o(.ARM.Collect$$rtentry$$00000000) refers (Special) to __rtentry2.o(.ARM.Collect$$rtentry$$0000000C) for __rt_entry_postli_1
    __rtentry.o(.ARM.Collect$$rtentry$$00000000) refers (Special) to __rtentry2.o(.ARM.Collect$$rtentry$$00000009) for __rt_entry_postsh_1
    __rtentry.o(.ARM.Collect$$rtentry$$00000000) refers (Special) to __rtentry2.o(.ARM.Collect$$rtentry$$00000002) for __rt_entry_presh_1
    __rtentry.o(.ARM.Collect$$rtentry$$00000000) refers (Special) to __rtentry4.o(.ARM.Collect$$rtentry$$00000004) for __rt_entry_sh
    _printf_str.o(.text) refers (Special) to _printf_char.o(.text) for _printf_cs_common
    _printf_str.o(.text) refers (Weak) to _printf_pad.o(.text) for _printf_pre_padding
    _printf_str.o(.text) refers (Weak) to _printf_pad.o(.text) for _printf_post_padding
    _printf_intcommon.o(.text) refers (Weak) to _printf_pad.o(.text) for _printf_pre_padding
    _printf_intcommon.o(.text) refers (Weak) to _printf_pad.o(.text) for _printf_pre_padding
    _printf_intcommon.o(.text) refers (Weak) to _printf_pad.o(.text) for _printf_post_padding
    _printf_char_common.o(.text) refers to __printf_flags_ss_wp.o(.text) for __printf
    _printf_char_file.o(.text) refers to _printf_char_common.o(.text) for _printf_char_common
    _printf_char_file.o(.text) refers to ferror.o(.text) for ferror
    _printf_char_file.o(.text) refers to bstring.o(i.fputc) for fputc
    _printf_wctomb.o(.text) refers (Special) to _printf_wchar.o(.text) for _printf_lcs_common
    _printf_wctomb.o(.text) refers to _wcrtomb.o(.text) for _wcrtomb
    _printf_wctomb.o(.text) refers (Weak) to _printf_pad.o(.text) for _printf_pre_padding
    _printf_wctomb.o(.text) refers (Weak) to _printf_pad.o(.text) for _printf_post_padding
    _printf_wctomb.o(.text) refers to _printf_wctomb.o(.constdata) for .constdata
    _printf_wctomb.o(.constdata) refers (Special) to _printf_wchar.o(.text) for _printf_lcs_common
    _printf_longlong_dec.o(.text) refers to lludiv10.o(.text) for _ll_udiv10
    _printf_longlong_dec.o(.text) refers to _printf_intcommon.o(.text) for _printf_int_common
    _printf_oct_ll.o(.text) refers to _printf_intcommon.o(.text) for _printf_int_common
    _printf_oct_int.o(.text) refers (Weak) to _printf_truncate.o(.text) for _printf_truncate_unsigned
    _printf_oct_int.o(.text) refers to _printf_intcommon.o(.text) for _printf_int_common
    _printf_oct_int_ll.o(.text) refers to _printf_intcommon.o(.text) for _printf_int_common
    _printf_oct_int_ll.o(.text) refers (Weak) to _printf_truncate.o(.text) for _printf_truncate_unsigned
    _printf_hex_ll.o(.text) refers to _printf_intcommon.o(.text) for _printf_int_common
    _printf_hex_ll.o(.text) refers to _printf_hex_ll.o(.constdata) for .constdata
    _printf_hex_int.o(.text) refers (Weak) to _printf_truncate.o(.text) for _printf_truncate_unsigned
    _printf_hex_int.o(.text) refers to _printf_intcommon.o(.text) for _printf_int_common
    _printf_hex_int.o(.text) refers to _printf_hex_int.o(.constdata) for .constdata
    _printf_hex_int_ll.o(.text) refers to _printf_intcommon.o(.text) for _printf_int_common
    _printf_hex_int_ll.o(.text) refers (Weak) to _printf_truncate.o(.text) for _printf_truncate_unsigned
    _printf_hex_int_ll.o(.text) refers to _printf_hex_int_ll.o(.constdata) for .constdata
    _printf_hex_ptr.o(.text) refers to _printf_intcommon.o(.text) for _printf_int_common
    _printf_hex_ptr.o(.text) refers to _printf_hex_ptr.o(.constdata) for .constdata
    _printf_hex_int_ptr.o(.text) refers to _printf_intcommon.o(.text) for _printf_int_common
    _printf_hex_int_ptr.o(.text) refers (Weak) to _printf_truncate.o(.text) for _printf_truncate_unsigned
    _printf_hex_int_ptr.o(.text) refers to _printf_hex_int_ptr.o(.constdata) for .constdata
    _printf_hex_ll_ptr.o(.text) refers to _printf_intcommon.o(.text) for _printf_int_common
    _printf_hex_ll_ptr.o(.text) refers to _printf_hex_ll_ptr.o(.constdata) for .constdata
    _printf_hex_int_ll_ptr.o(.text) refers to _printf_intcommon.o(.text) for _printf_int_common
    _printf_hex_int_ll_ptr.o(.text) refers (Weak) to _printf_truncate.o(.text) for _printf_truncate_unsigned
    _printf_hex_int_ll_ptr.o(.text) refers to _printf_hex_int_ll_ptr.o(.constdata) for .constdata
    _printf_c.o(.ARM.Collect$$_printf_percent$$00000013) refers (Weak) to _printf_char.o(.text) for _printf_char
    _printf_s.o(.ARM.Collect$$_printf_percent$$00000014) refers (Weak) to _printf_char.o(.text) for _printf_string
    _printf_n.o(.ARM.Collect$$_printf_percent$$00000001) refers (Weak) to _printf_charcount.o(.text) for _printf_charcount
    _printf_x.o(.ARM.Collect$$_printf_percent$$0000000C) refers (Weak) to _printf_hex_int_ll_ptr.o(.text) for _printf_int_hex
    _printf_p.o(.ARM.Collect$$_printf_percent$$00000002) refers (Weak) to _printf_hex_int_ll_ptr.o(.text) for _printf_hex_ptr
    _printf_o.o(.ARM.Collect$$_printf_percent$$0000000B) refers (Weak) to _printf_oct_int_ll.o(.text) for _printf_int_oct
    _printf_i.o(.ARM.Collect$$_printf_percent$$00000008) refers (Weak) to _printf_dec.o(.text) for _printf_int_dec
    _printf_u.o(.ARM.Collect$$_printf_percent$$0000000A) refers (Weak) to _printf_dec.o(.text) for _printf_int_dec
    _printf_f.o(.ARM.Collect$$_printf_percent$$00000003) refers (Weak) to printf1.o(x$fpl$printf1) for _printf_fp_dec
    _printf_e.o(.ARM.Collect$$_printf_percent$$00000004) refers (Weak) to printf1.o(x$fpl$printf1) for _printf_fp_dec
    _printf_g.o(.ARM.Collect$$_printf_percent$$00000005) refers (Weak) to printf1.o(x$fpl$printf1) for _printf_fp_dec
    _printf_a.o(.ARM.Collect$$_printf_percent$$00000006) refers (Weak) to printf2.o(x$fpl$printf2) for _printf_fp_hex
    _printf_lli.o(.ARM.Collect$$_printf_percent$$0000000D) refers (Special) to _printf_ll.o(.ARM.Collect$$_printf_percent$$00000007) for _printf_ll
    _printf_lli.o(.ARM.Collect$$_printf_percent$$0000000D) refers (Weak) to _printf_longlong_dec.o(.text) for _printf_longlong_dec
    _printf_lld.o(.ARM.Collect$$_printf_percent$$0000000E) refers (Special) to _printf_ll.o(.ARM.Collect$$_printf_percent$$00000007) for _printf_ll
    _printf_lld.o(.ARM.Collect$$_printf_percent$$0000000E) refers (Weak) to _printf_longlong_dec.o(.text) for _printf_longlong_dec
    _printf_llu.o(.ARM.Collect$$_printf_percent$$0000000F) refers (Special) to _printf_ll.o(.ARM.Collect$$_printf_percent$$00000007) for _printf_ll
    _printf_llu.o(.ARM.Collect$$_printf_percent$$0000000F) refers (Weak) to _printf_longlong_dec.o(.text) for _printf_longlong_dec
    _printf_lc.o(.ARM.Collect$$_printf_percent$$00000015) refers (Special) to _printf_l.o(.ARM.Collect$$_printf_percent$$00000012) for _printf_l
    _printf_lc.o(.ARM.Collect$$_printf_percent$$00000015) refers (Weak) to _printf_wchar.o(.text) for _printf_wchar
    _printf_ls.o(.ARM.Collect$$_printf_percent$$00000016) refers (Special) to _printf_l.o(.ARM.Collect$$_printf_percent$$00000012) for _printf_l
    _printf_ls.o(.ARM.Collect$$_printf_percent$$00000016) refers (Weak) to _printf_wchar.o(.text) for _printf_wstring
    _printf_llo.o(.ARM.Collect$$_printf_percent$$00000010) refers (Special) to _printf_ll.o(.ARM.Collect$$_printf_percent$$00000007) for _printf_ll
    _printf_llo.o(.ARM.Collect$$_printf_percent$$00000010) refers (Weak) to _printf_oct_int_ll.o(.text) for _printf_ll_oct
    _printf_llx.o(.ARM.Collect$$_printf_percent$$00000011) refers (Special) to _printf_ll.o(.ARM.Collect$$_printf_percent$$00000007) for _printf_ll
    _printf_llx.o(.ARM.Collect$$_printf_percent$$00000011) refers (Weak) to _printf_hex_int_ll_ptr.o(.text) for _printf_ll_hex
    printf1.o(x$fpl$printf1) refers to _printf_fp_dec.o(.text) for _printf_fp_dec_real
    printf2.o(x$fpl$printf2) refers to _printf_fp_hex.o(.text) for _printf_fp_hex_real
    printf2b.o(x$fpl$printf2) refers to _printf_fp_hex.o(.text) for _printf_fp_hex_real
    __rtentry2.o(.ARM.Collect$$rtentry$$00000008) refers to boardinit2.o(.text) for _platform_post_stackheap_init
    __rtentry2.o(.ARM.Collect$$rtentry$$0000000A) refers to libinit.o(.ARM.Collect$$libinit$$00000000) for __rt_lib_init
    __rtentry2.o(.ARM.Collect$$rtentry$$0000000B) refers to boardinit3.o(.text) for _platform_post_lib_init
    __rtentry2.o(.ARM.Collect$$rtentry$$0000000D) refers to main.o(i.main) for main
    __rtentry2.o(.ARM.Collect$$rtentry$$0000000D) refers to exit.o(.text) for exit
    __rtentry2.o(.ARM.exidx) refers to __rtentry2.o(.ARM.Collect$$rtentry$$00000001) for .ARM.Collect$$rtentry$$00000001
    __rtentry2.o(.ARM.exidx) refers to __rtentry2.o(.ARM.Collect$$rtentry$$00000008) for .ARM.Collect$$rtentry$$00000008
    __rtentry2.o(.ARM.exidx) refers to __rtentry2.o(.ARM.Collect$$rtentry$$0000000A) for .ARM.Collect$$rtentry$$0000000A
    __rtentry2.o(.ARM.exidx) refers to __rtentry2.o(.ARM.Collect$$rtentry$$0000000B) for .ARM.Collect$$rtentry$$0000000B
    __rtentry2.o(.ARM.exidx) refers to __rtentry2.o(.ARM.Collect$$rtentry$$0000000D) for .ARM.Collect$$rtentry$$0000000D
    __rtentry4.o(.ARM.Collect$$rtentry$$00000004) refers to sys_stackheap_outer.o(.text) for __user_setup_stackheap
    __rtentry4.o(.ARM.exidx) refers to __rtentry4.o(.ARM.Collect$$rtentry$$00000004) for .ARM.Collect$$rtentry$$00000004
    _printf_fp_dec.o(.text) refers (Special) to usenofp.o(x$fpl$usenofp) for __I$use$fp
    _printf_fp_dec.o(.text) refers (Special) to lc_numeric_c.o(locale$$code) for _get_lc_numeric
    _printf_fp_dec.o(.text) refers to bigflt0.o(.text) for _btod_etento
    _printf_fp_dec.o(.text) refers to btod.o(CL$$btod_d2e) for _btod_d2e
    _printf_fp_dec.o(.text) refers to btod.o(CL$$btod_ediv) for _btod_ediv
    _printf_fp_dec.o(.text) refers to btod.o(CL$$btod_emul) for _btod_emul
    _printf_fp_dec.o(.text) refers to lludiv10.o(.text) for _ll_udiv10
    _printf_fp_dec.o(.text) refers to fpclassify.o(i.__ARM_fpclassify) for __ARM_fpclassify
    _printf_fp_dec.o(.text) refers to _printf_fp_infnan.o(.text) for _printf_fp_infnan
    _printf_fp_dec.o(.text) refers (Weak) to _printf_pad.o(.text) for _printf_pre_padding
    _printf_fp_dec.o(.text) refers (Weak) to _printf_pad.o(.text) for _printf_pre_padding
    _printf_fp_dec.o(.text) refers to rt_locale_intlibspace.o(.text) for __rt_locale
    _printf_fp_dec.o(.text) refers (Weak) to _printf_pad.o(.text) for _printf_post_padding
    _printf_fp_hex.o(.text) refers (Special) to usenofp.o(x$fpl$usenofp) for __I$use$fp
    _printf_fp_hex.o(.text) refers to fpclassify.o(i.__ARM_fpclassify) for __ARM_fpclassify
    _printf_fp_hex.o(.text) refers to _printf_fp_infnan.o(.text) for _printf_fp_infnan
    _printf_fp_hex.o(.text) refers (Weak) to _printf_pad.o(.text) for _printf_pre_padding
    _printf_fp_hex.o(.text) refers (Weak) to _printf_pad.o(.text) for _printf_pre_padding
    _printf_fp_hex.o(.text) refers (Weak) to _printf_pad.o(.text) for _printf_post_padding
    _printf_fp_hex.o(.text) refers to _printf_fp_hex.o(.constdata) for .constdata
    _printf_fp_hex.o(.constdata) refers (Special) to usenofp.o(x$fpl$usenofp) for __I$use$fp
    _printf_char.o(.text) refers (Weak) to _printf_str.o(.text) for _printf_str
    _printf_wchar.o(.text) refers (Weak) to _printf_wctomb.o(.text) for _printf_wctomb
    _wcrtomb.o(.text) refers to rt_ctype_table.o(.text) for __rt_ctype_table
    sys_stackheap_outer.o(.text) refers to libspace.o(.text) for __user_perproc_libspace
    sys_stackheap_outer.o(.text) refers to startup_stm32f10x_md.o(.text) for __user_initial_stackheap
    rt_ctype_table.o(.text) refers to rt_locale_intlibspace.o(.text) for __rt_locale
    rt_ctype_table.o(.text) refers to lc_ctype_c.o(locale$$code) for _get_lc_ctype
    rt_locale.o(.text) refers to rt_locale.o(.bss) for __rt_locale_data
    rt_locale_intlibspace.o(.text) refers to libspace.o(.bss) for __libspace_start
    _printf_fp_infnan.o(.text) refers (Weak) to _printf_pad.o(.text) for _printf_pre_padding
    _printf_fp_infnan.o(.text) refers (Weak) to _printf_pad.o(.text) for _printf_post_padding
    bigflt0.o(.text) refers (Special) to usenofp.o(x$fpl$usenofp) for __I$use$fp
    bigflt0.o(.text) refers to btod.o(CL$$btod_emul) for _btod_emul
    bigflt0.o(.text) refers to btod.o(CL$$btod_ediv) for _btod_ediv
    bigflt0.o(.text) refers to bigflt0.o(.constdata) for .constdata
    bigflt0.o(.constdata) refers (Special) to usenofp.o(x$fpl$usenofp) for __I$use$fp
    btod.o(CL$$btod_d2e) refers (Special) to usenofp.o(x$fpl$usenofp) for __I$use$fp
    btod.o(CL$$btod_d2e) refers to btod.o(CL$$btod_d2e_norm_op1) for _d2e_norm_op1
    btod.o(CL$$btod_d2e_norm_op1) refers (Special) to usenofp.o(x$fpl$usenofp) for __I$use$fp
    btod.o(CL$$btod_d2e_norm_op1) refers to btod.o(CL$$btod_d2e_denorm_low) for _d2e_denorm_low
    btod.o(CL$$btod_d2e_denorm_low) refers (Special) to usenofp.o(x$fpl$usenofp) for __I$use$fp
    btod.o(CL$$btod_emul) refers (Special) to usenofp.o(x$fpl$usenofp) for __I$use$fp
    btod.o(CL$$btod_emul) refers to btod.o(CL$$btod_mult_common) for __btod_mult_common
    btod.o(CL$$btod_emul) refers to btod.o(CL$$btod_e2e) for _e2e
    btod.o(CL$$btod_ediv) refers (Special) to usenofp.o(x$fpl$usenofp) for __I$use$fp
    btod.o(CL$$btod_ediv) refers to btod.o(CL$$btod_div_common) for __btod_div_common
    btod.o(CL$$btod_ediv) refers to btod.o(CL$$btod_e2e) for _e2e
    btod.o(CL$$btod_emuld) refers (Special) to usenofp.o(x$fpl$usenofp) for __I$use$fp
    btod.o(CL$$btod_emuld) refers to btod.o(CL$$btod_mult_common) for __btod_mult_common
    btod.o(CL$$btod_emuld) refers to btod.o(CL$$btod_e2d) for _e2d
    btod.o(CL$$btod_edivd) refers (Special) to usenofp.o(x$fpl$usenofp) for __I$use$fp
    btod.o(CL$$btod_edivd) refers to btod.o(CL$$btod_div_common) for __btod_div_common
    btod.o(CL$$btod_edivd) refers to btod.o(CL$$btod_e2d) for _e2d
    btod.o(CL$$btod_e2e) refers (Special) to usenofp.o(x$fpl$usenofp) for __I$use$fp
    btod.o(CL$$btod_e2d) refers (Special) to usenofp.o(x$fpl$usenofp) for __I$use$fp
    btod.o(CL$$btod_e2d) refers to btod.o(CL$$btod_e2e) for _e2e
    btod.o(CL$$btod_mult_common) refers (Special) to usenofp.o(x$fpl$usenofp) for __I$use$fp
    btod.o(CL$$btod_div_common) refers (Special) to usenofp.o(x$fpl$usenofp) for __I$use$fp
    lc_numeric_c.o(locale$$data) refers (Special) to libinit2.o(.ARM.Collect$$libinit$$00000016) for __rt_lib_init_lc_numeric_2
    lc_numeric_c.o(locale$$code) refers (Special) to libinit2.o(.ARM.Collect$$libinit$$00000016) for __rt_lib_init_lc_numeric_2
    lc_numeric_c.o(locale$$code) refers to strcmpv7m.o(.text) for strcmp
    lc_numeric_c.o(locale$$code) refers to lc_numeric_c.o(locale$$data) for __lcnum_c_name
    exit.o(.text) refers to rtexit.o(.ARM.Collect$$rtexit$$00000000) for __rt_exit
    libinit.o(.ARM.Collect$$libinit$$00000000) refers (Special) to libinit2.o(.ARM.Collect$$libinit$$0000002E) for __rt_lib_init_alloca_1
    libinit.o(.ARM.Collect$$libinit$$00000000) refers (Special) to libinit2.o(.ARM.Collect$$libinit$$0000002C) for __rt_lib_init_argv_1
    libinit.o(.ARM.Collect$$libinit$$00000000) refers (Special) to libinit2.o(.ARM.Collect$$libinit$$0000001B) for __rt_lib_init_atexit_1
    libinit.o(.ARM.Collect$$libinit$$00000000) refers (Special) to libinit2.o(.ARM.Collect$$libinit$$00000021) for __rt_lib_init_clock_1
    libinit.o(.ARM.Collect$$libinit$$00000000) refers (Special) to libinit2.o(.ARM.Collect$$libinit$$00000032) for __rt_lib_init_cpp_1
    libinit.o(.ARM.Collect$$libinit$$00000000) refers (Special) to libinit2.o(.ARM.Collect$$libinit$$00000030) for __rt_lib_init_exceptions_1
    libinit.o(.ARM.Collect$$libinit$$00000000) refers (Special) to libinit2.o(.ARM.Collect$$libinit$$00000002) for __rt_lib_init_fp_1
    libinit.o(.ARM.Collect$$libinit$$00000000) refers (Special) to libinit2.o(.ARM.Collect$$libinit$$0000001F) for __rt_lib_init_fp_trap_1
    libinit.o(.ARM.Collect$$libinit$$00000000) refers (Special) to libinit2.o(.ARM.Collect$$libinit$$00000023) for __rt_lib_init_getenv_1
    libinit.o(.ARM.Collect$$libinit$$00000000) refers (Special) to libinit2.o(.ARM.Collect$$libinit$$0000000A) for __rt_lib_init_heap_1
    libinit.o(.ARM.Collect$$libinit$$00000000) refers (Special) to libinit2.o(.ARM.Collect$$libinit$$00000011) for __rt_lib_init_lc_collate_1
    libinit.o(.ARM.Collect$$libinit$$00000000) refers (Special) to libinit2.o(.ARM.Collect$$libinit$$00000013) for __rt_lib_init_lc_ctype_1
    libinit.o(.ARM.Collect$$libinit$$00000000) refers (Special) to libinit2.o(.ARM.Collect$$libinit$$00000015) for __rt_lib_init_lc_monetary_1
    libinit.o(.ARM.Collect$$libinit$$00000000) refers (Special) to libinit2.o(.ARM.Collect$$libinit$$00000017) for __rt_lib_init_lc_numeric_1
    libinit.o(.ARM.Collect$$libinit$$00000000) refers (Special) to libinit2.o(.ARM.Collect$$libinit$$00000019) for __rt_lib_init_lc_time_1
    libinit.o(.ARM.Collect$$libinit$$00000000) refers (Special) to libinit2.o(.ARM.Collect$$libinit$$00000004) for __rt_lib_init_preinit_1
    libinit.o(.ARM.Collect$$libinit$$00000000) refers (Special) to libinit2.o(.ARM.Collect$$libinit$$0000000E) for __rt_lib_init_rand_1
    libinit.o(.ARM.Collect$$libinit$$00000000) refers (Special) to libinit2.o(.ARM.Collect$$libinit$$00000033) for __rt_lib_init_return
    libinit.o(.ARM.Collect$$libinit$$00000000) refers (Special) to libinit2.o(.ARM.Collect$$libinit$$0000001D) for __rt_lib_init_signal_1
    libinit.o(.ARM.Collect$$libinit$$00000000) refers (Special) to libinit2.o(.ARM.Collect$$libinit$$00000025) for __rt_lib_init_stdio_1
    libinit.o(.ARM.Collect$$libinit$$00000000) refers (Special) to libinit2.o(.ARM.Collect$$libinit$$0000000C) for __rt_lib_init_user_alloc_1
    istatus.o(x$fpl$ieeestatus) refers (Special) to usenofp.o(x$fpl$usenofp) for __I$use$fp
    fpclassify.o(i.__ARM_fpclassify) refers (Special) to usenofp.o(x$fpl$usenofp) for __I$use$fp
    libspace.o(.text) refers to libspace.o(.bss) for __libspace_start
    rtexit.o(.ARM.Collect$$rtexit$$00000000) refers (Special) to rtexit2.o(.ARM.Collect$$rtexit$$00000004) for __rt_exit_exit
    rtexit.o(.ARM.Collect$$rtexit$$00000000) refers (Special) to rtexit2.o(.ARM.Collect$$rtexit$$00000003) for __rt_exit_ls
    rtexit.o(.ARM.Collect$$rtexit$$00000000) refers (Special) to rtexit2.o(.ARM.Collect$$rtexit$$00000002) for __rt_exit_prels_1
    rtexit.o(.ARM.exidx) refers (Special) to rtexit2.o(.ARM.Collect$$rtexit$$00000004) for __rt_exit_exit
    rtexit.o(.ARM.exidx) refers (Special) to rtexit2.o(.ARM.Collect$$rtexit$$00000003) for __rt_exit_ls
    rtexit.o(.ARM.exidx) refers (Special) to rtexit2.o(.ARM.Collect$$rtexit$$00000002) for __rt_exit_prels_1
    rtexit.o(.ARM.exidx) refers to rtexit.o(.ARM.Collect$$rtexit$$00000000) for .ARM.Collect$$rtexit$$00000000
    lc_ctype_c.o(locale$$data) refers (Special) to libinit2.o(.ARM.Collect$$libinit$$00000012) for __rt_lib_init_lc_ctype_2
    lc_ctype_c.o(locale$$code) refers (Special) to libinit2.o(.ARM.Collect$$libinit$$00000012) for __rt_lib_init_lc_ctype_2
    lc_ctype_c.o(locale$$code) refers to strcmpv7m.o(.text) for strcmp
    lc_ctype_c.o(locale$$code) refers to lc_ctype_c.o(locale$$data) for __lcctype_c_name
    libinit2.o(.ARM.Collect$$libinit$$0000000F) refers (Weak) to rt_locale_intlibspace.o(.text) for __rt_locale
    libinit2.o(.ARM.Collect$$libinit$$00000010) refers to libinit2.o(.ARM.Collect$$libinit$$0000000F) for .ARM.Collect$$libinit$$0000000F
    libinit2.o(.ARM.Collect$$libinit$$00000012) refers to libinit2.o(.ARM.Collect$$libinit$$0000000F) for .ARM.Collect$$libinit$$0000000F
    libinit2.o(.ARM.Collect$$libinit$$00000012) refers (Weak) to lc_ctype_c.o(locale$$code) for _get_lc_ctype
    libinit2.o(.ARM.Collect$$libinit$$00000014) refers to libinit2.o(.ARM.Collect$$libinit$$0000000F) for .ARM.Collect$$libinit$$0000000F
    libinit2.o(.ARM.Collect$$libinit$$00000016) refers to libinit2.o(.ARM.Collect$$libinit$$0000000F) for .ARM.Collect$$libinit$$0000000F
    libinit2.o(.ARM.Collect$$libinit$$00000016) refers (Weak) to lc_numeric_c.o(locale$$code) for _get_lc_numeric
    libinit2.o(.ARM.Collect$$libinit$$00000018) refers to libinit2.o(.ARM.Collect$$libinit$$0000000F) for .ARM.Collect$$libinit$$0000000F
    libinit2.o(.ARM.Collect$$libinit$$00000026) refers to argv_veneer.o(.emb_text) for __ARM_argv_veneer
    libinit2.o(.ARM.Collect$$libinit$$00000027) refers to argv_veneer.o(.emb_text) for __ARM_argv_veneer
    rtexit2.o(.ARM.Collect$$rtexit$$00000003) refers to libshutdown.o(.ARM.Collect$$libshutdown$$00000000) for __rt_lib_shutdown
    rtexit2.o(.ARM.Collect$$rtexit$$00000004) refers to bstring.o(i._sys_exit) for _sys_exit
    rtexit2.o(.ARM.exidx) refers to rtexit2.o(.ARM.Collect$$rtexit$$00000001) for .ARM.Collect$$rtexit$$00000001
    rtexit2.o(.ARM.exidx) refers to rtexit2.o(.ARM.Collect$$rtexit$$00000003) for .ARM.Collect$$rtexit$$00000003
    rtexit2.o(.ARM.exidx) refers to rtexit2.o(.ARM.Collect$$rtexit$$00000004) for .ARM.Collect$$rtexit$$00000004
    argv_veneer.o(.emb_text) refers to no_argv.o(.text) for __ARM_get_argv
    _get_argv_nomalloc.o(.text) refers (Special) to hrguard.o(.text) for __heap_region$guard
    _get_argv_nomalloc.o(.text) refers to defsig_rtmem_outer.o(.text) for __rt_SIGRTMEM
    _get_argv_nomalloc.o(.text) refers to sys_command.o(.text) for _sys_command_string
    libshutdown.o(.ARM.Collect$$libshutdown$$00000000) refers (Special) to libshutdown2.o(.ARM.Collect$$libshutdown$$00000002) for __rt_lib_shutdown_cpp_1
    libshutdown.o(.ARM.Collect$$libshutdown$$00000000) refers (Special) to libshutdown2.o(.ARM.Collect$$libshutdown$$00000007) for __rt_lib_shutdown_fp_trap_1
    libshutdown.o(.ARM.Collect$$libshutdown$$00000000) refers (Special) to libshutdown2.o(.ARM.Collect$$libshutdown$$0000000F) for __rt_lib_shutdown_heap_1
    libshutdown.o(.ARM.Collect$$libshutdown$$00000000) refers (Special) to libshutdown2.o(.ARM.Collect$$libshutdown$$00000010) for __rt_lib_shutdown_return
    libshutdown.o(.ARM.Collect$$libshutdown$$00000000) refers (Special) to libshutdown2.o(.ARM.Collect$$libshutdown$$0000000A) for __rt_lib_shutdown_signal_1
    libshutdown.o(.ARM.Collect$$libshutdown$$00000000) refers (Special) to libshutdown2.o(.ARM.Collect$$libshutdown$$00000004) for __rt_lib_shutdown_stdio_1
    libshutdown.o(.ARM.Collect$$libshutdown$$00000000) refers (Special) to libshutdown2.o(.ARM.Collect$$libshutdown$$0000000C) for __rt_lib_shutdown_user_alloc_1
    sys_command.o(.text) refers (Special) to use_no_semi.o(.text) for __I$use$semihosting
    sys_command.o(.text) refers (Special) to indicate_semi.o(.text) for __semihosting_library_function
    defsig_rtmem_outer.o(.text) refers to defsig_rtmem_inner.o(.text) for __rt_SIGRTMEM_inner
    defsig_rtmem_outer.o(.text) refers to defsig_exit.o(.text) for __sig_exit
    defsig_rtmem_formal.o(.text) refers to rt_raise.o(.text) for __rt_raise
    rt_raise.o(.text) refers to __raise.o(.text) for __raise
    rt_raise.o(.text) refers to bstring.o(i._sys_exit) for _sys_exit
    defsig_exit.o(.text) refers to bstring.o(i._sys_exit) for _sys_exit
    defsig_rtmem_inner.o(.text) refers to defsig_general.o(.text) for __default_signal_display
    __raise.o(.text) refers to defsig.o(CL$$defsig) for __default_signal_handler
    defsig_general.o(.text) refers to sys_wrch.o(.text) for _ttywrch
    sys_wrch.o(.text) refers (Special) to use_no_semi.o(.text) for __I$use$semihosting
    sys_wrch.o(.text) refers (Special) to indicate_semi.o(.text) for __semihosting_library_function
    defsig.o(CL$$defsig) refers to defsig_rtmem_inner.o(.text) for __rt_SIGRTMEM_inner
    defsig_abrt_inner.o(.text) refers to defsig_general.o(.text) for __default_signal_display
    defsig_fpe_inner.o(.text) refers to defsig_general.o(.text) for __default_signal_display
    defsig_rtred_inner.o(.text) refers to defsig_general.o(.text) for __default_signal_display
    defsig_stak_inner.o(.text) refers to defsig_general.o(.text) for __default_signal_display
    defsig_pvfn_inner.o(.text) refers to defsig_general.o(.text) for __default_signal_display
    defsig_cppl_inner.o(.text) refers to defsig_general.o(.text) for __default_signal_display
    defsig_segv_inner.o(.text) refers to defsig_general.o(.text) for __default_signal_display
    defsig_other.o(.text) refers to defsig_general.o(.text) for __default_signal_display


==============================================================================

Removing Unused input sections from the image.

    Removing main.o(.rev16_text), (4 bytes).
    Removing main.o(.revsh_text), (4 bytes).
    Removing main.o(.rrx_text), (6 bytes).
    Removing delay.o(.rev16_text), (4 bytes).
    Removing delay.o(.revsh_text), (4 bytes).
    Removing delay.o(.rrx_text), (6 bytes).
    Removing delay.o(i.delay_us), (76 bytes).
    Removing delay.o(i.delayms), (28 bytes).
    Removing bstring.o(.rev16_text), (4 bytes).
    Removing bstring.o(.revsh_text), (4 bytes).
    Removing bstring.o(.rrx_text), (6 bytes).
    Removing bstring.o(.emb_text), (6 bytes).
    Removing bstring.o(i.INTX_DISABLE), (4 bytes).
    Removing bstring.o(i.INTX_ENABLE), (4 bytes).
    Removing bstring.o(i.WFI_SET), (4 bytes).
    Removing flash.o(.rev16_text), (4 bytes).
    Removing flash.o(.revsh_text), (4 bytes).
    Removing flash.o(.rrx_text), (6 bytes).
    Removing flash.o(i.Flash_ReadData), (20 bytes).
    Removing flash.o(i.Flash_WriteData), (24 bytes).
    Removing flash.o(i.STMFLASH_Read), (34 bytes).
    Removing flash.o(i.STMFLASH_ReadHalfWord), (6 bytes).
    Removing flash.o(i.STMFLASH_Write), (232 bytes).
    Removing flash.o(i.STMFLASH_Write_NoCheck), (38 bytes).
    Removing flash.o(i.Test_Write), (16 bytes).
    Removing flash.o(.bss), (1024 bytes).
    Removing flash.o(.constdata), (1028 bytes).
    Removing gpio.o(.rev16_text), (4 bytes).
    Removing gpio.o(.revsh_text), (4 bytes).
    Removing gpio.o(.rrx_text), (6 bytes).
    Removing gpio.o(i.MG_Toggle), (56 bytes).
    Removing mi2c.o(.rev16_text), (4 bytes).
    Removing mi2c.o(.revsh_text), (4 bytes).
    Removing mi2c.o(.rrx_text), (6 bytes).
    Removing mi2c.o(i.MI2C_NoAck), (58 bytes).
    Removing mi2c.o(i.MI2C_ReadMiltiReg), (150 bytes).
    Removing mi2c.o(i.MI2C_SetAck), (62 bytes).
    Removing mi2c.o(i.MI2C_WriteMiltiReg), (110 bytes).
    Removing mi2c.o(i.MI2C_WriteReg), (92 bytes).
    Removing tim.o(.rev16_text), (4 bytes).
    Removing tim.o(.revsh_text), (4 bytes).
    Removing tim.o(.rrx_text), (6 bytes).
    Removing tim.o(i.TIM2_Configuration), (74 bytes).
    Removing tim.o(i.TIM2_Start), (30 bytes).
    Removing tim.o(i.TIM3_Configuration), (76 bytes).
    Removing tim.o(i.TIM3_Start), (36 bytes).
    Removing usart1.o(.rev16_text), (4 bytes).
    Removing usart1.o(.revsh_text), (4 bytes).
    Removing usart1.o(.rrx_text), (6 bytes).
    Removing usart1.o(i.USART1_SendChar), (48 bytes).
    Removing usart1.o(.constdata), (8 bytes).
    Removing usart2.o(.rev16_text), (4 bytes).
    Removing usart2.o(.revsh_text), (4 bytes).
    Removing usart2.o(.rrx_text), (6 bytes).
    Removing usart2.o(i.USART2_Configuration), (420 bytes).
    Removing usart2.o(i.USART2_DMASendWords), (144 bytes).
    Removing usart2.o(i.USART2_SendChar), (48 bytes).
    Removing usart2.o(i.USART2_SendWords), (68 bytes).
    Removing usart2.o(.constdata), (8 bytes).
    Removing usart3.o(.rev16_text), (4 bytes).
    Removing usart3.o(.revsh_text), (4 bytes).
    Removing usart3.o(.rrx_text), (6 bytes).
    Removing usart3.o(i.USART3_Configuration), (424 bytes).
    Removing usart3.o(i.USART3_DMASendWords), (140 bytes).
    Removing usart3.o(i.USART3_SendChar), (48 bytes).
    Removing usart3.o(i.USART3_SendWords), (68 bytes).
    Removing usart3.o(.constdata), (8 bytes).
    Removing spi1.o(.rev16_text), (4 bytes).
    Removing spi1.o(.revsh_text), (4 bytes).
    Removing spi1.o(.rrx_text), (6 bytes).
    Removing spi1.o(i.SPI1M_Configuration), (136 bytes).
    Removing spi1.o(i.SPI1_HighFirst), (48 bytes).
    Removing spi1.o(i.SPI1_Input), (20 bytes).
    Removing spi1.o(i.SPI1_Output), (20 bytes).
    Removing spi1.o(i.SPI1_ReadByte), (44 bytes).
    Removing spi1.o(i.SPI1_ReadWriteByte), (108 bytes).
    Removing spi1.o(i.SPI1_SetDoubleMode), (32 bytes).
    Removing spi1.o(i.SPI1_SetSingleMode), (36 bytes).
    Removing spi1.o(i.SPI1_SetSpeed), (44 bytes).
    Removing spi1.o(i.SPI1_WriteByte), (44 bytes).
    Removing spi1.o(.bss), (18 bytes).
    Removing mspi.o(.rev16_text), (4 bytes).
    Removing mspi.o(.revsh_text), (4 bytes).
    Removing mspi.o(.rrx_text), (6 bytes).
    Removing mspi.o(i.MSPI_Down), (16 bytes).
    Removing mspi.o(i.MSPI_End), (16 bytes).
    Removing mspi.o(i.MSPI_Get), (30 bytes).
    Removing mspi.o(i.MSPI_In), (16 bytes).
    Removing mspi.o(i.MSPI_Init), (152 bytes).
    Removing mspi.o(i.MSPI_Out), (14 bytes).
    Removing mspi.o(i.MSPI_ReadByte), (238 bytes).
    Removing mspi.o(i.MSPI_ReadMultiReg), (68 bytes).
    Removing mspi.o(i.MSPI_ReadReg), (52 bytes).
    Removing mspi.o(i.MSPI_ReadWriteByte), (324 bytes).
    Removing mspi.o(i.MSPI_Set), (18 bytes).
    Removing mspi.o(i.MSPI_Start), (16 bytes).
    Removing mspi.o(i.MSPI_Up), (16 bytes).
    Removing mspi.o(i.MSPI_Wait), (12 bytes).
    Removing mspi.o(i.MSPI_WriteByte), (226 bytes).
    Removing mspi.o(i.MSPI_WriteCmd), (34 bytes).
    Removing mspi.o(i.MSPI_WriteMultiReg), (62 bytes).
    Removing mspi.o(i.MSPI_WriteReg), (44 bytes).
    Removing ad.o(.rev16_text), (4 bytes).
    Removing ad.o(.revsh_text), (4 bytes).
    Removing ad.o(.rrx_text), (6 bytes).
    Removing ad.o(i.ADC_Configuration), (476 bytes).
    Removing ad.o(i.ADC_Filter), (48 bytes).
    Removing ad.o(.bss), (256 bytes).
    Removing pwm.o(.rev16_text), (4 bytes).
    Removing pwm.o(.revsh_text), (4 bytes).
    Removing pwm.o(.rrx_text), (6 bytes).
    Removing pwm.o(i.PWMA_Configuration), (248 bytes).
    Removing pwm.o(i.PWMB_Configuration), (208 bytes).
    Removing pwm.o(i.SetPWMA1), (20 bytes).
    Removing pwm.o(i.SetPWMA2), (20 bytes).
    Removing pwm.o(i.SetPWMA3), (20 bytes).
    Removing pwm.o(i.SetPWMA4), (20 bytes).
    Removing pwm.o(i.SetPWMB1), (20 bytes).
    Removing pwm.o(i.SetPWMB2), (20 bytes).
    Removing pwm.o(i.SetPWMB3), (20 bytes).
    Removing iwdg.o(.rev16_text), (4 bytes).
    Removing iwdg.o(.revsh_text), (4 bytes).
    Removing iwdg.o(.rrx_text), (6 bytes).
    Removing iwdg.o(i.IWDG_Config), (36 bytes).
    Removing iwdg.o(i.IWDG_Feed), (8 bytes).
    Removing tm1638.o(.rev16_text), (4 bytes).
    Removing tm1638.o(.revsh_text), (4 bytes).
    Removing tm1638.o(.rrx_text), (6 bytes).
    Removing tm1638.o(i.TM1638_Clear), (48 bytes).
    Removing tm1638.o(i.TM1638_Disable), (14 bytes).
    Removing tm1638.o(i.TM1638_DisplayBit), (42 bytes).
    Removing tm1638.o(i.TM1638_Enable), (14 bytes).
    Removing tm1638.o(i.TM1638_Init), (20 bytes).
    Removing tm1638.o(i.TM1638_Off), (10 bytes).
    Removing tm1638.o(i.TM1638_On), (10 bytes).
    Removing tm1638.o(i.TM1638_ReadBytes), (64 bytes).
    Removing tm1638.o(i.TM1638_ReadKey), (38 bytes).
    Removing tm1638.o(i.TM1638_WriteBytes), (46 bytes).
    Removing tm1638.o(i.TM1638_WriteCmd), (24 bytes).
    Removing tm1638.o(.constdata), (1 bytes).
    Removing lora.o(.rev16_text), (4 bytes).
    Removing lora.o(.revsh_text), (4 bytes).
    Removing lora.o(.rrx_text), (6 bytes).
    Removing lora.o(i.LORA_AskInfo), (24 bytes).
    Removing lora.o(i.LORA_BaseOnRecv), (72 bytes).
    Removing lora.o(i.LORA_BaseOnSendFinish), (12 bytes).
    Removing lora.o(i.LORA_Broadcast), (44 bytes).
    Removing lora.o(i.LORA_ChangeWorkMode), (132 bytes).
    Removing lora.o(i.LORA_Configuration), (116 bytes).
    Removing lora.o(i.LORA_GetConfig), (36 bytes).
    Removing lora.o(i.LORA_OnRecv), (2 bytes).
    Removing lora.o(i.LORA_Reset), (24 bytes).
    Removing lora.o(i.LORA_Send), (16 bytes).
    Removing lora.o(i.LORA_SendData), (48 bytes).
    Removing lora.o(i.LORA_SendToNode), (50 bytes).
    Removing lora.o(i.LORA_SetConfig), (60 bytes).
    Removing lora.o(i.LORA_WaitRecv), (44 bytes).
    Removing lora.o(i.LORA_WaitSend), (68 bytes).
    Removing lora.o(.constdata), (10 bytes).
    Removing lora.o(.data), (12 bytes).
    Removing oled.o(.rev16_text), (4 bytes).
    Removing oled.o(.revsh_text), (4 bytes).
    Removing oled.o(.rrx_text), (6 bytes).
    Removing oled.o(i.OLEDCmd), (68 bytes).
    Removing oled.o(i.OLED_CLS), (10 bytes).
    Removing oled.o(i.OLED_Configuration), (28 bytes).
    Removing oled.o(i.OLED_Fill), (58 bytes).
    Removing oled.o(i.OLED_Init), (178 bytes).
    Removing oled.o(i.OLED_OFF), (22 bytes).
    Removing oled.o(i.OLED_ON), (22 bytes).
    Removing oled.o(i.OLED_SetPos), (40 bytes).
    Removing oled.o(i.OLED_ShowStr), (236 bytes).
    Removing oled.o(i.WriteCmd), (14 bytes).
    Removing oled.o(i.WriteDat), (14 bytes).
    Removing oled.o(.bss), (1024 bytes).
    Removing oled.o(.data), (8 bytes).
    Removing oledres.o(.constdata), (2072 bytes).
    Removing hw_config.o(.rev16_text), (4 bytes).
    Removing hw_config.o(.revsh_text), (4 bytes).
    Removing hw_config.o(.rrx_text), (6 bytes).
    Removing usb_desc.o(.rev16_text), (4 bytes).
    Removing usb_desc.o(.revsh_text), (4 bytes).
    Removing usb_desc.o(.rrx_text), (6 bytes).
    Removing usb_endp.o(.rev16_text), (4 bytes).
    Removing usb_endp.o(.revsh_text), (4 bytes).
    Removing usb_endp.o(.rrx_text), (6 bytes).
    Removing usb_istr.o(.rev16_text), (4 bytes).
    Removing usb_istr.o(.revsh_text), (4 bytes).
    Removing usb_istr.o(.rrx_text), (6 bytes).
    Removing usb_prop.o(.rev16_text), (4 bytes).
    Removing usb_prop.o(.revsh_text), (4 bytes).
    Removing usb_prop.o(.rrx_text), (6 bytes).
    Removing usb_pwr.o(.rev16_text), (4 bytes).
    Removing usb_pwr.o(.revsh_text), (4 bytes).
    Removing usb_pwr.o(.rrx_text), (6 bytes).
    Removing usb_pwr.o(i.PowerOff), (32 bytes).
    Removing usb_core.o(.rev16_text), (4 bytes).
    Removing usb_core.o(.revsh_text), (4 bytes).
    Removing usb_core.o(.rrx_text), (6 bytes).
    Removing usb_init.o(.rev16_text), (4 bytes).
    Removing usb_init.o(.revsh_text), (4 bytes).
    Removing usb_init.o(.rrx_text), (6 bytes).
    Removing usb_int.o(.rev16_text), (4 bytes).
    Removing usb_int.o(.revsh_text), (4 bytes).
    Removing usb_int.o(.rrx_text), (6 bytes).
    Removing usb_int.o(i.CTR_HP), (200 bytes).
    Removing usb_mem.o(.rev16_text), (4 bytes).
    Removing usb_mem.o(.revsh_text), (4 bytes).
    Removing usb_mem.o(.rrx_text), (6 bytes).
    Removing usb_regs.o(.rev16_text), (4 bytes).
    Removing usb_regs.o(.revsh_text), (4 bytes).
    Removing usb_regs.o(.rrx_text), (6 bytes).
    Removing usb_regs.o(i.ClearEPDoubleBuff), (40 bytes).
    Removing usb_regs.o(i.ClearEP_CTR_RX), (36 bytes).
    Removing usb_regs.o(i.ClearEP_CTR_TX), (32 bytes).
    Removing usb_regs.o(i.ClearEP_KIND), (40 bytes).
    Removing usb_regs.o(i.FreeUserBuffer), (84 bytes).
    Removing usb_regs.o(i.GetBTABLE), (12 bytes).
    Removing usb_regs.o(i.GetCNTR), (12 bytes).
    Removing usb_regs.o(i.GetDADDR), (12 bytes).
    Removing usb_regs.o(i.GetENDPOINT), (20 bytes).
    Removing usb_regs.o(i.GetEPAddress), (24 bytes).
    Removing usb_regs.o(i.GetEPDblBuf0Addr), (32 bytes).
    Removing usb_regs.o(i.GetEPDblBuf0Count), (36 bytes).
    Removing usb_regs.o(i.GetEPDblBuf1Addr), (32 bytes).
    Removing usb_regs.o(i.GetEPDblBuf1Count), (36 bytes).
    Removing usb_regs.o(i.GetEPDblBufDir), (72 bytes).
    Removing usb_regs.o(i.GetEPRxStatus), (24 bytes).
    Removing usb_regs.o(i.GetEPTxCount), (36 bytes).
    Removing usb_regs.o(i.GetEPTxStatus), (24 bytes).
    Removing usb_regs.o(i.GetEPType), (24 bytes).
    Removing usb_regs.o(i.GetFNR), (12 bytes).
    Removing usb_regs.o(i.GetISTR), (12 bytes).
    Removing usb_regs.o(i.GetRxStallStatus), (36 bytes).
    Removing usb_regs.o(i.GetTxStallStatus), (32 bytes).
    Removing usb_regs.o(i.SetCNTR), (12 bytes).
    Removing usb_regs.o(i.SetDADDR), (12 bytes).
    Removing usb_regs.o(i.SetDouBleBuffEPStall), (60 bytes).
    Removing usb_regs.o(i.SetENDPOINT), (16 bytes).
    Removing usb_regs.o(i.SetEPAddress), (44 bytes).
    Removing usb_regs.o(i.SetEPCountRxReg), (48 bytes).
    Removing usb_regs.o(i.SetEPDblBuf0Addr), (32 bytes).
    Removing usb_regs.o(i.SetEPDblBuf0Count), (104 bytes).
    Removing usb_regs.o(i.SetEPDblBuf1Addr), (36 bytes).
    Removing usb_regs.o(i.SetEPDblBuf1Count), (104 bytes).
    Removing usb_regs.o(i.SetEPDblBuffAddr), (52 bytes).
    Removing usb_regs.o(i.SetEPDblBuffCount), (196 bytes).
    Removing usb_regs.o(i.SetEPDoubleBuff), (44 bytes).
    Removing usb_regs.o(i.SetEP_KIND), (44 bytes).
    Removing usb_regs.o(i.SetISTR), (12 bytes).
    Removing usb_regs.o(i.Set_Status_Out), (44 bytes).
    Removing usb_regs.o(i.ToWord), (8 bytes).
    Removing usb_regs.o(i.ToggleDTOG_RX), (40 bytes).
    Removing usb_regs.o(i.ToggleDTOG_TX), (40 bytes).
    Removing usb_sil.o(.rev16_text), (4 bytes).
    Removing usb_sil.o(.revsh_text), (4 bytes).
    Removing usb_sil.o(.rrx_text), (6 bytes).
    Removing usb_sil.o(i.USB_SIL_Write), (46 bytes).
    Removing system_stm32f10x.o(.rev16_text), (4 bytes).
    Removing system_stm32f10x.o(.revsh_text), (4 bytes).
    Removing system_stm32f10x.o(.rrx_text), (6 bytes).
    Removing system_stm32f10x.o(i.SystemCoreClockUpdate), (164 bytes).
    Removing misc.o(.rev16_text), (4 bytes).
    Removing misc.o(.revsh_text), (4 bytes).
    Removing misc.o(.rrx_text), (6 bytes).
    Removing misc.o(i.NVIC_SetVectorTable), (20 bytes).
    Removing misc.o(i.NVIC_SystemLPConfig), (32 bytes).
    Removing stm32f10x_adc.o(.rev16_text), (4 bytes).
    Removing stm32f10x_adc.o(.revsh_text), (4 bytes).
    Removing stm32f10x_adc.o(.rrx_text), (6 bytes).
    Removing stm32f10x_adc.o(i.ADC_AnalogWatchdogCmd), (20 bytes).
    Removing stm32f10x_adc.o(i.ADC_AnalogWatchdogSingleChannelConfig), (16 bytes).
    Removing stm32f10x_adc.o(i.ADC_AnalogWatchdogThresholdsConfig), (6 bytes).
    Removing stm32f10x_adc.o(i.ADC_AutoInjectedConvCmd), (22 bytes).
    Removing stm32f10x_adc.o(i.ADC_ClearFlag), (6 bytes).
    Removing stm32f10x_adc.o(i.ADC_ClearITPendingBit), (10 bytes).
    Removing stm32f10x_adc.o(i.ADC_Cmd), (22 bytes).
    Removing stm32f10x_adc.o(i.ADC_DMACmd), (22 bytes).
    Removing stm32f10x_adc.o(i.ADC_DeInit), (92 bytes).
    Removing stm32f10x_adc.o(i.ADC_DiscModeChannelCountConfig), (24 bytes).
    Removing stm32f10x_adc.o(i.ADC_DiscModeCmd), (22 bytes).
    Removing stm32f10x_adc.o(i.ADC_ExternalTrigConvCmd), (22 bytes).
    Removing stm32f10x_adc.o(i.ADC_ExternalTrigInjectedConvCmd), (22 bytes).
    Removing stm32f10x_adc.o(i.ADC_ExternalTrigInjectedConvConfig), (16 bytes).
    Removing stm32f10x_adc.o(i.ADC_GetCalibrationStatus), (20 bytes).
    Removing stm32f10x_adc.o(i.ADC_GetConversionValue), (8 bytes).
    Removing stm32f10x_adc.o(i.ADC_GetDualModeConversionValue), (12 bytes).
    Removing stm32f10x_adc.o(i.ADC_GetFlagStatus), (18 bytes).
    Removing stm32f10x_adc.o(i.ADC_GetITStatus), (36 bytes).
    Removing stm32f10x_adc.o(i.ADC_GetInjectedConversionValue), (28 bytes).
    Removing stm32f10x_adc.o(i.ADC_GetResetCalibrationStatus), (20 bytes).
    Removing stm32f10x_adc.o(i.ADC_GetSoftwareStartConvStatus), (20 bytes).
    Removing stm32f10x_adc.o(i.ADC_GetSoftwareStartInjectedConvCmdStatus), (20 bytes).
    Removing stm32f10x_adc.o(i.ADC_ITConfig), (24 bytes).
    Removing stm32f10x_adc.o(i.ADC_Init), (80 bytes).
    Removing stm32f10x_adc.o(i.ADC_InjectedChannelConfig), (130 bytes).
    Removing stm32f10x_adc.o(i.ADC_InjectedDiscModeCmd), (22 bytes).
    Removing stm32f10x_adc.o(i.ADC_InjectedSequencerLengthConfig), (24 bytes).
    Removing stm32f10x_adc.o(i.ADC_RegularChannelConfig), (184 bytes).
    Removing stm32f10x_adc.o(i.ADC_ResetCalibration), (10 bytes).
    Removing stm32f10x_adc.o(i.ADC_SetInjectedOffset), (20 bytes).
    Removing stm32f10x_adc.o(i.ADC_SoftwareStartConvCmd), (22 bytes).
    Removing stm32f10x_adc.o(i.ADC_SoftwareStartInjectedConvCmd), (22 bytes).
    Removing stm32f10x_adc.o(i.ADC_StartCalibration), (10 bytes).
    Removing stm32f10x_adc.o(i.ADC_StructInit), (18 bytes).
    Removing stm32f10x_adc.o(i.ADC_TempSensorVrefintCmd), (36 bytes).
    Removing stm32f10x_crc.o(.rev16_text), (4 bytes).
    Removing stm32f10x_crc.o(.revsh_text), (4 bytes).
    Removing stm32f10x_crc.o(.rrx_text), (6 bytes).
    Removing stm32f10x_crc.o(i.CRC_CalcBlockCRC), (36 bytes).
    Removing stm32f10x_crc.o(i.CRC_CalcCRC), (16 bytes).
    Removing stm32f10x_crc.o(i.CRC_GetCRC), (12 bytes).
    Removing stm32f10x_crc.o(i.CRC_GetIDRegister), (12 bytes).
    Removing stm32f10x_crc.o(i.CRC_ResetDR), (12 bytes).
    Removing stm32f10x_crc.o(i.CRC_SetIDRegister), (12 bytes).
    Removing stm32f10x_dbgmcu.o(.rev16_text), (4 bytes).
    Removing stm32f10x_dbgmcu.o(.revsh_text), (4 bytes).
    Removing stm32f10x_dbgmcu.o(.rrx_text), (6 bytes).
    Removing stm32f10x_dbgmcu.o(i.DBGMCU_Config), (32 bytes).
    Removing stm32f10x_dbgmcu.o(i.DBGMCU_GetDEVID), (16 bytes).
    Removing stm32f10x_dbgmcu.o(i.DBGMCU_GetREVID), (12 bytes).
    Removing stm32f10x_dma.o(.rev16_text), (4 bytes).
    Removing stm32f10x_dma.o(.revsh_text), (4 bytes).
    Removing stm32f10x_dma.o(.rrx_text), (6 bytes).
    Removing stm32f10x_dma.o(i.DMA_DeInit), (332 bytes).
    Removing stm32f10x_dma.o(i.DMA_StructInit), (26 bytes).
    Removing stm32f10x_flash.o(.rev16_text), (4 bytes).
    Removing stm32f10x_flash.o(.revsh_text), (4 bytes).
    Removing stm32f10x_flash.o(.rrx_text), (6 bytes).
    Removing stm32f10x_flash.o(i.FLASH_ClearFlag), (12 bytes).
    Removing stm32f10x_flash.o(i.FLASH_EnableWriteProtection), (196 bytes).
    Removing stm32f10x_flash.o(i.FLASH_EraseAllBank1Pages), (72 bytes).
    Removing stm32f10x_flash.o(i.FLASH_EraseAllPages), (72 bytes).
    Removing stm32f10x_flash.o(i.FLASH_EraseOptionBytes), (168 bytes).
    Removing stm32f10x_flash.o(i.FLASH_ErasePage), (76 bytes).
    Removing stm32f10x_flash.o(i.FLASH_GetBank1Status), (52 bytes).
    Removing stm32f10x_flash.o(i.FLASH_GetFlagStatus), (48 bytes).
    Removing stm32f10x_flash.o(i.FLASH_GetPrefetchBufferStatus), (24 bytes).
    Removing stm32f10x_flash.o(i.FLASH_GetReadOutProtectionStatus), (24 bytes).
    Removing stm32f10x_flash.o(i.FLASH_GetStatus), (52 bytes).
    Removing stm32f10x_flash.o(i.FLASH_GetUserOptionByte), (12 bytes).
    Removing stm32f10x_flash.o(i.FLASH_GetWriteProtectionOptionByte), (12 bytes).
    Removing stm32f10x_flash.o(i.FLASH_HalfCycleAccessCmd), (28 bytes).
    Removing stm32f10x_flash.o(i.FLASH_ITConfig), (32 bytes).
    Removing stm32f10x_flash.o(i.FLASH_Lock), (20 bytes).
    Removing stm32f10x_flash.o(i.FLASH_LockBank1), (20 bytes).
    Removing stm32f10x_flash.o(i.FLASH_PrefetchBufferCmd), (28 bytes).
    Removing stm32f10x_flash.o(i.FLASH_ProgramHalfWord), (64 bytes).
    Removing stm32f10x_flash.o(i.FLASH_ProgramOptionByteData), (84 bytes).
    Removing stm32f10x_flash.o(i.FLASH_ProgramWord), (108 bytes).
    Removing stm32f10x_flash.o(i.FLASH_ReadOutProtection), (172 bytes).
    Removing stm32f10x_flash.o(i.FLASH_SetLatency), (24 bytes).
    Removing stm32f10x_flash.o(i.FLASH_Unlock), (24 bytes).
    Removing stm32f10x_flash.o(i.FLASH_UnlockBank1), (24 bytes).
    Removing stm32f10x_flash.o(i.FLASH_UserOptionByteConfig), (104 bytes).
    Removing stm32f10x_flash.o(i.FLASH_WaitForLastBank1Operation), (38 bytes).
    Removing stm32f10x_flash.o(i.FLASH_WaitForLastOperation), (38 bytes).
    Removing stm32f10x_gpio.o(.rev16_text), (4 bytes).
    Removing stm32f10x_gpio.o(.revsh_text), (4 bytes).
    Removing stm32f10x_gpio.o(.rrx_text), (6 bytes).
    Removing stm32f10x_gpio.o(i.GPIO_AFIODeInit), (20 bytes).
    Removing stm32f10x_gpio.o(i.GPIO_DeInit), (200 bytes).
    Removing stm32f10x_gpio.o(i.GPIO_ETH_MediaInterfaceConfig), (12 bytes).
    Removing stm32f10x_gpio.o(i.GPIO_EXTILineConfig), (64 bytes).
    Removing stm32f10x_gpio.o(i.GPIO_EventOutputCmd), (12 bytes).
    Removing stm32f10x_gpio.o(i.GPIO_EventOutputConfig), (32 bytes).
    Removing stm32f10x_gpio.o(i.GPIO_PinLockConfig), (18 bytes).
    Removing stm32f10x_gpio.o(i.GPIO_PinRemapConfig), (144 bytes).
    Removing stm32f10x_gpio.o(i.GPIO_ReadInputData), (8 bytes).
    Removing stm32f10x_gpio.o(i.GPIO_ReadOutputData), (8 bytes).
    Removing stm32f10x_gpio.o(i.GPIO_ReadOutputDataBit), (18 bytes).
    Removing stm32f10x_gpio.o(i.GPIO_StructInit), (16 bytes).
    Removing stm32f10x_gpio.o(i.GPIO_Write), (4 bytes).
    Removing stm32f10x_gpio.o(i.GPIO_WriteBit), (10 bytes).
    Removing stm32f10x_iwdg.o(.rev16_text), (4 bytes).
    Removing stm32f10x_iwdg.o(.revsh_text), (4 bytes).
    Removing stm32f10x_iwdg.o(.rrx_text), (6 bytes).
    Removing stm32f10x_iwdg.o(i.IWDG_Enable), (16 bytes).
    Removing stm32f10x_iwdg.o(i.IWDG_GetFlagStatus), (24 bytes).
    Removing stm32f10x_iwdg.o(i.IWDG_ReloadCounter), (16 bytes).
    Removing stm32f10x_iwdg.o(i.IWDG_SetPrescaler), (12 bytes).
    Removing stm32f10x_iwdg.o(i.IWDG_SetReload), (12 bytes).
    Removing stm32f10x_iwdg.o(i.IWDG_WriteAccessCmd), (12 bytes).
    Removing stm32f10x_rcc.o(.rev16_text), (4 bytes).
    Removing stm32f10x_rcc.o(.revsh_text), (4 bytes).
    Removing stm32f10x_rcc.o(.rrx_text), (6 bytes).
    Removing stm32f10x_rcc.o(i.RCC_ADCCLKConfig), (24 bytes).
    Removing stm32f10x_rcc.o(i.RCC_AdjustHSICalibrationValue), (24 bytes).
    Removing stm32f10x_rcc.o(i.RCC_BackupResetCmd), (12 bytes).
    Removing stm32f10x_rcc.o(i.RCC_ClearFlag), (20 bytes).
    Removing stm32f10x_rcc.o(i.RCC_ClearITPendingBit), (12 bytes).
    Removing stm32f10x_rcc.o(i.RCC_ClockSecuritySystemCmd), (12 bytes).
    Removing stm32f10x_rcc.o(i.RCC_DeInit), (76 bytes).
    Removing stm32f10x_rcc.o(i.RCC_GetFlagStatus), (60 bytes).
    Removing stm32f10x_rcc.o(i.RCC_GetITStatus), (24 bytes).
    Removing stm32f10x_rcc.o(i.RCC_GetSYSCLKSource), (16 bytes).
    Removing stm32f10x_rcc.o(i.RCC_HCLKConfig), (24 bytes).
    Removing stm32f10x_rcc.o(i.RCC_HSEConfig), (76 bytes).
    Removing stm32f10x_rcc.o(i.RCC_HSICmd), (12 bytes).
    Removing stm32f10x_rcc.o(i.RCC_ITConfig), (32 bytes).
    Removing stm32f10x_rcc.o(i.RCC_LSEConfig), (52 bytes).
    Removing stm32f10x_rcc.o(i.RCC_LSICmd), (12 bytes).
    Removing stm32f10x_rcc.o(i.RCC_MCOConfig), (12 bytes).
    Removing stm32f10x_rcc.o(i.RCC_PCLK1Config), (24 bytes).
    Removing stm32f10x_rcc.o(i.RCC_PCLK2Config), (24 bytes).
    Removing stm32f10x_rcc.o(i.RCC_PLLCmd), (12 bytes).
    Removing stm32f10x_rcc.o(i.RCC_PLLConfig), (28 bytes).
    Removing stm32f10x_rcc.o(i.RCC_RTCCLKCmd), (12 bytes).
    Removing stm32f10x_rcc.o(i.RCC_RTCCLKConfig), (16 bytes).
    Removing stm32f10x_rcc.o(i.RCC_SYSCLKConfig), (24 bytes).
    Removing stm32f10x_rcc.o(i.RCC_WaitForHSEStartUp), (56 bytes).
    Removing stm32f10x_spi.o(.rev16_text), (4 bytes).
    Removing stm32f10x_spi.o(.revsh_text), (4 bytes).
    Removing stm32f10x_spi.o(.rrx_text), (6 bytes).
    Removing stm32f10x_spi.o(i.I2S_Cmd), (24 bytes).
    Removing stm32f10x_spi.o(i.I2S_Init), (232 bytes).
    Removing stm32f10x_spi.o(i.I2S_StructInit), (20 bytes).
    Removing stm32f10x_spi.o(i.SPI_BiDirectionalLineConfig), (28 bytes).
    Removing stm32f10x_spi.o(i.SPI_CalculateCRC), (24 bytes).
    Removing stm32f10x_spi.o(i.SPI_Cmd), (24 bytes).
    Removing stm32f10x_spi.o(i.SPI_DataSizeConfig), (18 bytes).
    Removing stm32f10x_spi.o(i.SPI_GetCRC), (16 bytes).
    Removing stm32f10x_spi.o(i.SPI_GetCRCPolynomial), (6 bytes).
    Removing stm32f10x_spi.o(i.SPI_I2S_ClearFlag), (6 bytes).
    Removing stm32f10x_spi.o(i.SPI_I2S_ClearITPendingBit), (20 bytes).
    Removing stm32f10x_spi.o(i.SPI_I2S_DMACmd), (18 bytes).
    Removing stm32f10x_spi.o(i.SPI_I2S_DeInit), (88 bytes).
    Removing stm32f10x_spi.o(i.SPI_I2S_GetFlagStatus), (18 bytes).
    Removing stm32f10x_spi.o(i.SPI_I2S_GetITStatus), (52 bytes).
    Removing stm32f10x_spi.o(i.SPI_I2S_ITConfig), (32 bytes).
    Removing stm32f10x_spi.o(i.SPI_I2S_ReceiveData), (6 bytes).
    Removing stm32f10x_spi.o(i.SPI_I2S_SendData), (4 bytes).
    Removing stm32f10x_spi.o(i.SPI_Init), (60 bytes).
    Removing stm32f10x_spi.o(i.SPI_NSSInternalSoftwareConfig), (30 bytes).
    Removing stm32f10x_spi.o(i.SPI_SSOutputCmd), (24 bytes).
    Removing stm32f10x_spi.o(i.SPI_StructInit), (24 bytes).
    Removing stm32f10x_spi.o(i.SPI_TransmitCRC), (10 bytes).
    Removing stm32f10x_tim.o(.rev16_text), (4 bytes).
    Removing stm32f10x_tim.o(.revsh_text), (4 bytes).
    Removing stm32f10x_tim.o(.rrx_text), (6 bytes).
    Removing stm32f10x_tim.o(i.TI1_Config), (128 bytes).
    Removing stm32f10x_tim.o(i.TI2_Config), (152 bytes).
    Removing stm32f10x_tim.o(i.TI3_Config), (144 bytes).
    Removing stm32f10x_tim.o(i.TI4_Config), (152 bytes).
    Removing stm32f10x_tim.o(i.TIM_ARRPreloadConfig), (24 bytes).
    Removing stm32f10x_tim.o(i.TIM_BDTRConfig), (32 bytes).
    Removing stm32f10x_tim.o(i.TIM_BDTRStructInit), (18 bytes).
    Removing stm32f10x_tim.o(i.TIM_CCPreloadControl), (24 bytes).
    Removing stm32f10x_tim.o(i.TIM_CCxCmd), (30 bytes).
    Removing stm32f10x_tim.o(i.TIM_CCxNCmd), (30 bytes).
    Removing stm32f10x_tim.o(i.TIM_ClearFlag), (6 bytes).
    Removing stm32f10x_tim.o(i.TIM_ClearITPendingBit), (6 bytes).
    Removing stm32f10x_tim.o(i.TIM_ClearOC1Ref), (18 bytes).
    Removing stm32f10x_tim.o(i.TIM_ClearOC2Ref), (24 bytes).
    Removing stm32f10x_tim.o(i.TIM_ClearOC3Ref), (18 bytes).
    Removing stm32f10x_tim.o(i.TIM_ClearOC4Ref), (24 bytes).
    Removing stm32f10x_tim.o(i.TIM_Cmd), (24 bytes).
    Removing stm32f10x_tim.o(i.TIM_CounterModeConfig), (18 bytes).
    Removing stm32f10x_tim.o(i.TIM_CtrlPWMOutputs), (30 bytes).
    Removing stm32f10x_tim.o(i.TIM_DMACmd), (18 bytes).
    Removing stm32f10x_tim.o(i.TIM_DMAConfig), (10 bytes).
    Removing stm32f10x_tim.o(i.TIM_DeInit), (488 bytes).
    Removing stm32f10x_tim.o(i.TIM_ETRClockMode1Config), (54 bytes).
    Removing stm32f10x_tim.o(i.TIM_ETRClockMode2Config), (32 bytes).
    Removing stm32f10x_tim.o(i.TIM_ETRConfig), (28 bytes).
    Removing stm32f10x_tim.o(i.TIM_EncoderInterfaceConfig), (66 bytes).
    Removing stm32f10x_tim.o(i.TIM_ForcedOC1Config), (18 bytes).
    Removing stm32f10x_tim.o(i.TIM_ForcedOC2Config), (26 bytes).
    Removing stm32f10x_tim.o(i.TIM_ForcedOC3Config), (18 bytes).
    Removing stm32f10x_tim.o(i.TIM_ForcedOC4Config), (26 bytes).
    Removing stm32f10x_tim.o(i.TIM_GenerateEvent), (4 bytes).
    Removing stm32f10x_tim.o(i.TIM_GetCapture1), (6 bytes).
    Removing stm32f10x_tim.o(i.TIM_GetCapture2), (6 bytes).
    Removing stm32f10x_tim.o(i.TIM_GetCapture3), (6 bytes).
    Removing stm32f10x_tim.o(i.TIM_GetCapture4), (8 bytes).
    Removing stm32f10x_tim.o(i.TIM_GetCounter), (6 bytes).
    Removing stm32f10x_tim.o(i.TIM_GetFlagStatus), (18 bytes).
    Removing stm32f10x_tim.o(i.TIM_GetITStatus), (34 bytes).
    Removing stm32f10x_tim.o(i.TIM_GetPrescaler), (6 bytes).
    Removing stm32f10x_tim.o(i.TIM_ICInit), (172 bytes).
    Removing stm32f10x_tim.o(i.TIM_ICStructInit), (18 bytes).
    Removing stm32f10x_tim.o(i.TIM_ITConfig), (18 bytes).
    Removing stm32f10x_tim.o(i.TIM_ITRxExternalClockConfig), (24 bytes).
    Removing stm32f10x_tim.o(i.TIM_InternalClockConfig), (12 bytes).
    Removing stm32f10x_tim.o(i.TIM_OC1FastConfig), (18 bytes).
    Removing stm32f10x_tim.o(i.TIM_OC1Init), (152 bytes).
    Removing stm32f10x_tim.o(i.TIM_OC1NPolarityConfig), (18 bytes).
    Removing stm32f10x_tim.o(i.TIM_OC1PolarityConfig), (18 bytes).
    Removing stm32f10x_tim.o(i.TIM_OC1PreloadConfig), (18 bytes).
    Removing stm32f10x_tim.o(i.TIM_OC2FastConfig), (26 bytes).
    Removing stm32f10x_tim.o(i.TIM_OC2Init), (164 bytes).
    Removing stm32f10x_tim.o(i.TIM_OC2NPolarityConfig), (26 bytes).
    Removing stm32f10x_tim.o(i.TIM_OC2PolarityConfig), (26 bytes).
    Removing stm32f10x_tim.o(i.TIM_OC2PreloadConfig), (26 bytes).
    Removing stm32f10x_tim.o(i.TIM_OC3FastConfig), (18 bytes).
    Removing stm32f10x_tim.o(i.TIM_OC3Init), (160 bytes).
    Removing stm32f10x_tim.o(i.TIM_OC3NPolarityConfig), (26 bytes).
    Removing stm32f10x_tim.o(i.TIM_OC3PolarityConfig), (26 bytes).
    Removing stm32f10x_tim.o(i.TIM_OC3PreloadConfig), (18 bytes).
    Removing stm32f10x_tim.o(i.TIM_OC4FastConfig), (26 bytes).
    Removing stm32f10x_tim.o(i.TIM_OC4Init), (124 bytes).
    Removing stm32f10x_tim.o(i.TIM_OC4PolarityConfig), (26 bytes).
    Removing stm32f10x_tim.o(i.TIM_OC4PreloadConfig), (26 bytes).
    Removing stm32f10x_tim.o(i.TIM_OCStructInit), (20 bytes).
    Removing stm32f10x_tim.o(i.TIM_PWMIConfig), (124 bytes).
    Removing stm32f10x_tim.o(i.TIM_PrescalerConfig), (6 bytes).
    Removing stm32f10x_tim.o(i.TIM_SelectCCDMA), (24 bytes).
    Removing stm32f10x_tim.o(i.TIM_SelectCOM), (24 bytes).
    Removing stm32f10x_tim.o(i.TIM_SelectHallSensor), (24 bytes).
    Removing stm32f10x_tim.o(i.TIM_SelectInputTrigger), (18 bytes).
    Removing stm32f10x_tim.o(i.TIM_SelectMasterSlaveMode), (18 bytes).
    Removing stm32f10x_tim.o(i.TIM_SelectOCxM), (82 bytes).
    Removing stm32f10x_tim.o(i.TIM_SelectOnePulseMode), (18 bytes).
    Removing stm32f10x_tim.o(i.TIM_SelectOutputTrigger), (18 bytes).
    Removing stm32f10x_tim.o(i.TIM_SelectSlaveMode), (18 bytes).
    Removing stm32f10x_tim.o(i.TIM_SetAutoreload), (4 bytes).
    Removing stm32f10x_tim.o(i.TIM_SetClockDivision), (18 bytes).
    Removing stm32f10x_tim.o(i.TIM_SetCompare1), (4 bytes).
    Removing stm32f10x_tim.o(i.TIM_SetCompare2), (4 bytes).
    Removing stm32f10x_tim.o(i.TIM_SetCompare3), (4 bytes).
    Removing stm32f10x_tim.o(i.TIM_SetCompare4), (6 bytes).
    Removing stm32f10x_tim.o(i.TIM_SetCounter), (4 bytes).
    Removing stm32f10x_tim.o(i.TIM_SetIC1Prescaler), (18 bytes).
    Removing stm32f10x_tim.o(i.TIM_SetIC2Prescaler), (26 bytes).
    Removing stm32f10x_tim.o(i.TIM_SetIC3Prescaler), (18 bytes).
    Removing stm32f10x_tim.o(i.TIM_SetIC4Prescaler), (26 bytes).
    Removing stm32f10x_tim.o(i.TIM_TIxExternalClockConfig), (62 bytes).
    Removing stm32f10x_tim.o(i.TIM_TimeBaseInit), (164 bytes).
    Removing stm32f10x_tim.o(i.TIM_TimeBaseStructInit), (18 bytes).
    Removing stm32f10x_tim.o(i.TIM_UpdateDisableConfig), (24 bytes).
    Removing stm32f10x_tim.o(i.TIM_UpdateRequestConfig), (24 bytes).
    Removing stm32f10x_usart.o(.rev16_text), (4 bytes).
    Removing stm32f10x_usart.o(.revsh_text), (4 bytes).
    Removing stm32f10x_usart.o(.rrx_text), (6 bytes).
    Removing stm32f10x_usart.o(i.USART_ClearFlag), (18 bytes).
    Removing stm32f10x_usart.o(i.USART_ClockInit), (34 bytes).
    Removing stm32f10x_usart.o(i.USART_ClockStructInit), (12 bytes).
    Removing stm32f10x_usart.o(i.USART_HalfDuplexCmd), (24 bytes).
    Removing stm32f10x_usart.o(i.USART_IrDACmd), (24 bytes).
    Removing stm32f10x_usart.o(i.USART_IrDAConfig), (18 bytes).
    Removing stm32f10x_usart.o(i.USART_LINBreakDetectLengthConfig), (18 bytes).
    Removing stm32f10x_usart.o(i.USART_LINCmd), (24 bytes).
    Removing stm32f10x_usart.o(i.USART_OneBitMethodCmd), (24 bytes).
    Removing stm32f10x_usart.o(i.USART_OverSampling8Cmd), (22 bytes).
    Removing stm32f10x_usart.o(i.USART_ReceiverWakeUpCmd), (24 bytes).
    Removing stm32f10x_usart.o(i.USART_SendBreak), (10 bytes).
    Removing stm32f10x_usart.o(i.USART_SetAddress), (18 bytes).
    Removing stm32f10x_usart.o(i.USART_SetGuardTime), (16 bytes).
    Removing stm32f10x_usart.o(i.USART_SetPrescaler), (16 bytes).
    Removing stm32f10x_usart.o(i.USART_SmartCardCmd), (24 bytes).
    Removing stm32f10x_usart.o(i.USART_SmartCardNACKCmd), (24 bytes).
    Removing stm32f10x_usart.o(i.USART_StructInit), (24 bytes).
    Removing stm32f10x_usart.o(i.USART_WakeUpConfig), (18 bytes).
    Removing stm32f10x_exti.o(.rev16_text), (4 bytes).
    Removing stm32f10x_exti.o(.revsh_text), (4 bytes).
    Removing stm32f10x_exti.o(.rrx_text), (6 bytes).
    Removing stm32f10x_exti.o(i.EXTI_ClearFlag), (12 bytes).
    Removing stm32f10x_exti.o(i.EXTI_DeInit), (36 bytes).
    Removing stm32f10x_exti.o(i.EXTI_GenerateSWInterrupt), (16 bytes).
    Removing stm32f10x_exti.o(i.EXTI_GetFlagStatus), (24 bytes).
    Removing stm32f10x_exti.o(i.EXTI_GetITStatus), (40 bytes).
    Removing stm32f10x_exti.o(i.EXTI_StructInit), (16 bytes).

562 unused section(s) (total 25427 bytes) removed from the image.

==============================================================================

Image Symbol Table

    Local Symbols

    Symbol Name                              Value     Ov Type        Size  Object(Section)

    ../clib/angel/boardlib.s                 0x00000000   Number         0  boardinit2.o ABSOLUTE
    ../clib/angel/boardlib.s                 0x00000000   Number         0  boardinit3.o ABSOLUTE
    ../clib/angel/boardlib.s                 0x00000000   Number         0  boardinit1.o ABSOLUTE
    ../clib/angel/boardlib.s                 0x00000000   Number         0  boardshut.o ABSOLUTE
    ../clib/angel/dczerorl2.s                0x00000000   Number         0  __dczerorl2.o ABSOLUTE
    ../clib/angel/handlers.s                 0x00000000   Number         0  __scatter_zi.o ABSOLUTE
    ../clib/angel/kernel.s                   0x00000000   Number         0  rtexit2.o ABSOLUTE
    ../clib/angel/kernel.s                   0x00000000   Number         0  __rtentry2.o ABSOLUTE
    ../clib/angel/kernel.s                   0x00000000   Number         0  __rtentry.o ABSOLUTE
    ../clib/angel/kernel.s                   0x00000000   Number         0  __rtentry4.o ABSOLUTE
    ../clib/angel/kernel.s                   0x00000000   Number         0  rtexit.o ABSOLUTE
    ../clib/angel/rt.s                       0x00000000   Number         0  rt_locale_intlibspace.o ABSOLUTE
    ../clib/angel/rt.s                       0x00000000   Number         0  rt_ctype_table.o ABSOLUTE
    ../clib/angel/rt.s                       0x00000000   Number         0  rt_locale.o ABSOLUTE
    ../clib/angel/rt.s                       0x00000000   Number         0  rt_raise.o ABSOLUTE
    ../clib/angel/scatter.s                  0x00000000   Number         0  __scatter.o ABSOLUTE
    ../clib/angel/startup.s                  0x00000000   Number         0  __main.o ABSOLUTE
    ../clib/angel/sys.s                      0x00000000   Number         0  use_no_semi_2.o ABSOLUTE
    ../clib/angel/sys.s                      0x00000000   Number         0  libspace.o ABSOLUTE
    ../clib/angel/sys.s                      0x00000000   Number         0  indicate_semi.o ABSOLUTE
    ../clib/angel/sys.s                      0x00000000   Number         0  use_no_semi.o ABSOLUTE
    ../clib/angel/sys.s                      0x00000000   Number         0  sys_stackheap_outer.o ABSOLUTE
    ../clib/angel/sysapp.c                   0x00000000   Number         0  sys_command.o ABSOLUTE
    ../clib/angel/sysapp.c                   0x00000000   Number         0  sys_wrch.o ABSOLUTE
    ../clib/armsys.c                         0x00000000   Number         0  _get_argv_nomalloc.o ABSOLUTE
    ../clib/armsys.c                         0x00000000   Number         0  argv_veneer.o ABSOLUTE
    ../clib/armsys.c                         0x00000000   Number         0  argv_veneer.o ABSOLUTE
    ../clib/armsys.c                         0x00000000   Number         0  no_argv.o ABSOLUTE
    ../clib/bigflt.c                         0x00000000   Number         0  bigflt0.o ABSOLUTE
    ../clib/btod.s                           0x00000000   Number         0  btod.o ABSOLUTE
    ../clib/heapalloc.c                      0x00000000   Number         0  hrguard.o ABSOLUTE
    ../clib/heapaux.c                        0x00000000   Number         0  heapauxi.o ABSOLUTE
    ../clib/libinit.s                        0x00000000   Number         0  libinit.o ABSOLUTE
    ../clib/libinit.s                        0x00000000   Number         0  libshutdown2.o ABSOLUTE
    ../clib/libinit.s                        0x00000000   Number         0  libshutdown.o ABSOLUTE
    ../clib/libinit.s                        0x00000000   Number         0  libinit2.o ABSOLUTE
    ../clib/locale.c                         0x00000000   Number         0  _wcrtomb.o ABSOLUTE
    ../clib/locale.s                         0x00000000   Number         0  lc_numeric_c.o ABSOLUTE
    ../clib/locale.s                         0x00000000   Number         0  lc_ctype_c.o ABSOLUTE
    ../clib/longlong.s                       0x00000000   Number         0  lludiv10.o ABSOLUTE
    ../clib/memcpset.s                       0x00000000   Number         0  strcmpv7m.o ABSOLUTE
    ../clib/misc.s                           0x00000000   Number         0  printf_stubs.o ABSOLUTE
    ../clib/printf.c                         0x00000000   Number         0  _printf_hex_ll.o ABSOLUTE
    ../clib/printf.c                         0x00000000   Number         0  _printf_oct_int_ll.o ABSOLUTE
    ../clib/printf.c                         0x00000000   Number         0  _printf_oct_int.o ABSOLUTE
    ../clib/printf.c                         0x00000000   Number         0  _printf_oct_ll.o ABSOLUTE
    ../clib/printf.c                         0x00000000   Number         0  _printf_wctomb.o ABSOLUTE
    ../clib/printf.c                         0x00000000   Number         0  _printf_longlong_dec.o ABSOLUTE
    ../clib/printf.c                         0x00000000   Number         0  __printf.o ABSOLUTE
    ../clib/printf.c                         0x00000000   Number         0  noretval__2printf.o ABSOLUTE
    ../clib/printf.c                         0x00000000   Number         0  _printf_hex_int_ll.o ABSOLUTE
    ../clib/printf.c                         0x00000000   Number         0  _printf_hex_int_ptr.o ABSOLUTE
    ../clib/printf.c                         0x00000000   Number         0  _printf_hex_ll_ptr.o ABSOLUTE
    ../clib/printf.c                         0x00000000   Number         0  _printf_hex_int_ll_ptr.o ABSOLUTE
    ../clib/printf.c                         0x00000000   Number         0  __2printf.o ABSOLUTE
    ../clib/printf.c                         0x00000000   Number         0  vsprintf.o ABSOLUTE
    ../clib/printf.c                         0x00000000   Number         0  _printf_hex_ptr.o ABSOLUTE
    ../clib/printf.c                         0x00000000   Number         0  __printf_ss_wp.o ABSOLUTE
    ../clib/printf.c                         0x00000000   Number         0  __printf_flags_wp.o ABSOLUTE
    ../clib/printf.c                         0x00000000   Number         0  _printf_char_file.o ABSOLUTE
    ../clib/printf.c                         0x00000000   Number         0  _sputc.o ABSOLUTE
    ../clib/printf.c                         0x00000000   Number         0  __printf_wp.o ABSOLUTE
    ../clib/printf.c                         0x00000000   Number         0  __printf_flags_ss.o ABSOLUTE
    ../clib/printf.c                         0x00000000   Number         0  __printf_ss.o ABSOLUTE
    ../clib/printf.c                         0x00000000   Number         0  __printf_flags.o ABSOLUTE
    ../clib/printf.c                         0x00000000   Number         0  __printf_flags_ss_wp.o ABSOLUTE
    ../clib/printf.c                         0x00000000   Number         0  _printf_charcount.o ABSOLUTE
    ../clib/printf.c                         0x00000000   Number         0  _printf_fp_dec.o ABSOLUTE
    ../clib/printf.c                         0x00000000   Number         0  _printf_str.o ABSOLUTE
    ../clib/printf.c                         0x00000000   Number         0  _printf_intcommon.o ABSOLUTE
    ../clib/printf.c                         0x00000000   Number         0  __printf_nopercent.o ABSOLUTE
    ../clib/printf.c                         0x00000000   Number         0  _printf_char.o ABSOLUTE
    ../clib/printf.c                         0x00000000   Number         0  _printf_wchar.o ABSOLUTE
    ../clib/printf.c                         0x00000000   Number         0  _printf_hex_int.o ABSOLUTE
    ../clib/printf.c                         0x00000000   Number         0  _printf_dec.o ABSOLUTE
    ../clib/printf.c                         0x00000000   Number         0  _printf_truncate.o ABSOLUTE
    ../clib/printf.c                         0x00000000   Number         0  _printf_pad.o ABSOLUTE
    ../clib/printf.c                         0x00000000   Number         0  _printf_char_common.o ABSOLUTE
    ../clib/printf.c                         0x00000000   Number         0  _printf_fp_infnan.o ABSOLUTE
    ../clib/printf.c                         0x00000000   Number         0  _printf_fp_hex.o ABSOLUTE
    ../clib/printf_percent.s                 0x00000000   Number         0  _printf_i.o ABSOLUTE
    ../clib/printf_percent.s                 0x00000000   Number         0  _printf_o.o ABSOLUTE
    ../clib/printf_percent.s                 0x00000000   Number         0  _printf_p.o ABSOLUTE
    ../clib/printf_percent.s                 0x00000000   Number         0  _printf_x.o ABSOLUTE
    ../clib/printf_percent.s                 0x00000000   Number         0  _printf_n.o ABSOLUTE
    ../clib/printf_percent.s                 0x00000000   Number         0  _printf_s.o ABSOLUTE
    ../clib/printf_percent.s                 0x00000000   Number         0  _printf_c.o ABSOLUTE
    ../clib/printf_percent.s                 0x00000000   Number         0  _printf_percent.o ABSOLUTE
    ../clib/printf_percent.s                 0x00000000   Number         0  _printf_d.o ABSOLUTE
    ../clib/printf_percent.s                 0x00000000   Number         0  _printf_ll.o ABSOLUTE
    ../clib/printf_percent.s                 0x00000000   Number         0  _printf_llx.o ABSOLUTE
    ../clib/printf_percent.s                 0x00000000   Number         0  _printf_llo.o ABSOLUTE
    ../clib/printf_percent.s                 0x00000000   Number         0  _printf_ls.o ABSOLUTE
    ../clib/printf_percent.s                 0x00000000   Number         0  _printf_lc.o ABSOLUTE
    ../clib/printf_percent.s                 0x00000000   Number         0  _printf_l.o ABSOLUTE
    ../clib/printf_percent.s                 0x00000000   Number         0  _printf_llu.o ABSOLUTE
    ../clib/printf_percent.s                 0x00000000   Number         0  _printf_lld.o ABSOLUTE
    ../clib/printf_percent.s                 0x00000000   Number         0  _printf_lli.o ABSOLUTE
    ../clib/printf_percent.s                 0x00000000   Number         0  _printf_percent_end.o ABSOLUTE
    ../clib/printf_percent.s                 0x00000000   Number         0  _printf_a.o ABSOLUTE
    ../clib/printf_percent.s                 0x00000000   Number         0  _printf_g.o ABSOLUTE
    ../clib/printf_percent.s                 0x00000000   Number         0  _printf_e.o ABSOLUTE
    ../clib/printf_percent.s                 0x00000000   Number         0  _printf_f.o ABSOLUTE
    ../clib/printf_percent.s                 0x00000000   Number         0  _printf_u.o ABSOLUTE
    ../clib/signal.c                         0x00000000   Number         0  defsig_rtmem_outer.o ABSOLUTE
    ../clib/signal.c                         0x00000000   Number         0  defsig_segv_inner.o ABSOLUTE
    ../clib/signal.c                         0x00000000   Number         0  defsig_other.o ABSOLUTE
    ../clib/signal.c                         0x00000000   Number         0  defsig_cppl_inner.o ABSOLUTE
    ../clib/signal.c                         0x00000000   Number         0  defsig_rtred_inner.o ABSOLUTE
    ../clib/signal.c                         0x00000000   Number         0  defsig_fpe_inner.o ABSOLUTE
    ../clib/signal.c                         0x00000000   Number         0  defsig_rtmem_formal.o ABSOLUTE
    ../clib/signal.c                         0x00000000   Number         0  defsig_abrt_inner.o ABSOLUTE
    ../clib/signal.c                         0x00000000   Number         0  defsig_stak_inner.o ABSOLUTE
    ../clib/signal.c                         0x00000000   Number         0  defsig_pvfn_inner.o ABSOLUTE
    ../clib/signal.c                         0x00000000   Number         0  defsig_general.o ABSOLUTE
    ../clib/signal.c                         0x00000000   Number         0  __raise.o ABSOLUTE
    ../clib/signal.c                         0x00000000   Number         0  defsig_rtmem_inner.o ABSOLUTE
    ../clib/signal.c                         0x00000000   Number         0  defsig_exit.o ABSOLUTE
    ../clib/signal.s                         0x00000000   Number         0  defsig.o ABSOLUTE
    ../clib/stdio.c                          0x00000000   Number         0  ferror_locked.o ABSOLUTE
    ../clib/stdio.c                          0x00000000   Number         0  ferror.o ABSOLUTE
    ../clib/stdlib.c                         0x00000000   Number         0  exit.o ABSOLUTE
    ../clib/string.c                         0x00000000   Number         0  strlen.o ABSOLUTE
    ../fplib/fpinit.s                        0x00000000   Number         0  fpinit.o ABSOLUTE
    ../fplib/istatus.s                       0x00000000   Number         0  istatus.o ABSOLUTE
    ../fplib/printf1.s                       0x00000000   Number         0  printf1.o ABSOLUTE
    ../fplib/printf2.s                       0x00000000   Number         0  printf2.o ABSOLUTE
    ../fplib/printf2a.s                      0x00000000   Number         0  printf2a.o ABSOLUTE
    ../fplib/printf2b.s                      0x00000000   Number         0  printf2b.o ABSOLUTE
    ../fplib/usenofp.s                       0x00000000   Number         0  usenofp.o ABSOLUTE
    ../mathlib/fpclassify.c                  0x00000000   Number         0  fpclassify.o ABSOLUTE
    ..\Device\lora.c                         0x00000000   Number         0  lora.o ABSOLUTE
    ..\Device\oled.c                         0x00000000   Number         0  oled.o ABSOLUTE
    ..\Device\oledres.c                      0x00000000   Number         0  oledres.o ABSOLUTE
    ..\Device\tm1638.c                       0x00000000   Number         0  tm1638.o ABSOLUTE
    ..\Driver\ad.c                           0x00000000   Number         0  ad.o ABSOLUTE
    ..\Driver\bstring.c                      0x00000000   Number         0  bstring.o ABSOLUTE
    ..\Driver\delay.c                        0x00000000   Number         0  delay.o ABSOLUTE
    ..\Driver\flash.c                        0x00000000   Number         0  flash.o ABSOLUTE
    ..\Driver\gpio.c                         0x00000000   Number         0  gpio.o ABSOLUTE
    ..\Driver\iwdg.c                         0x00000000   Number         0  iwdg.o ABSOLUTE
    ..\Driver\mi2c.c                         0x00000000   Number         0  mi2c.o ABSOLUTE
    ..\Driver\mspi.c                         0x00000000   Number         0  mspi.o ABSOLUTE
    ..\Driver\pwm.c                          0x00000000   Number         0  pwm.o ABSOLUTE
    ..\Driver\spi1.c                         0x00000000   Number         0  spi1.o ABSOLUTE
    ..\Driver\tim.c                          0x00000000   Number         0  tim.o ABSOLUTE
    ..\Driver\usart1.c                       0x00000000   Number         0  usart1.o ABSOLUTE
    ..\Driver\usart2.c                       0x00000000   Number         0  usart2.o ABSOLUTE
    ..\Driver\usart3.c                       0x00000000   Number         0  usart3.o ABSOLUTE
    ..\USB\CONFIG\hw_config.c                0x00000000   Number         0  hw_config.o ABSOLUTE
    ..\USB\CONFIG\usb_desc.c                 0x00000000   Number         0  usb_desc.o ABSOLUTE
    ..\USB\CONFIG\usb_endp.c                 0x00000000   Number         0  usb_endp.o ABSOLUTE
    ..\USB\CONFIG\usb_istr.c                 0x00000000   Number         0  usb_istr.o ABSOLUTE
    ..\USB\CONFIG\usb_prop.c                 0x00000000   Number         0  usb_prop.o ABSOLUTE
    ..\USB\CONFIG\usb_pwr.c                  0x00000000   Number         0  usb_pwr.o ABSOLUTE
    ..\USB\STM32_USB-FS-Device_Driver\src\usb_core.c 0x00000000   Number         0  usb_core.o ABSOLUTE
    ..\USB\STM32_USB-FS-Device_Driver\src\usb_init.c 0x00000000   Number         0  usb_init.o ABSOLUTE
    ..\USB\STM32_USB-FS-Device_Driver\src\usb_int.c 0x00000000   Number         0  usb_int.o ABSOLUTE
    ..\USB\STM32_USB-FS-Device_Driver\src\usb_mem.c 0x00000000   Number         0  usb_mem.o ABSOLUTE
    ..\USB\STM32_USB-FS-Device_Driver\src\usb_regs.c 0x00000000   Number         0  usb_regs.o ABSOLUTE
    ..\USB\STM32_USB-FS-Device_Driver\src\usb_sil.c 0x00000000   Number         0  usb_sil.o ABSOLUTE
    ..\User\main.c                           0x00000000   Number         0  main.o ABSOLUTE
    ..\\Device\\lora.c                       0x00000000   Number         0  lora.o ABSOLUTE
    ..\\Device\\oled.c                       0x00000000   Number         0  oled.o ABSOLUTE
    ..\\Device\\tm1638.c                     0x00000000   Number         0  tm1638.o ABSOLUTE
    ..\\Driver\\ad.c                         0x00000000   Number         0  ad.o ABSOLUTE
    ..\\Driver\\bstring.c                    0x00000000   Number         0  bstring.o ABSOLUTE
    ..\\Driver\\delay.c                      0x00000000   Number         0  delay.o ABSOLUTE
    ..\\Driver\\flash.c                      0x00000000   Number         0  flash.o ABSOLUTE
    ..\\Driver\\gpio.c                       0x00000000   Number         0  gpio.o ABSOLUTE
    ..\\Driver\\iwdg.c                       0x00000000   Number         0  iwdg.o ABSOLUTE
    ..\\Driver\\mi2c.c                       0x00000000   Number         0  mi2c.o ABSOLUTE
    ..\\Driver\\mspi.c                       0x00000000   Number         0  mspi.o ABSOLUTE
    ..\\Driver\\pwm.c                        0x00000000   Number         0  pwm.o ABSOLUTE
    ..\\Driver\\spi1.c                       0x00000000   Number         0  spi1.o ABSOLUTE
    ..\\Driver\\tim.c                        0x00000000   Number         0  tim.o ABSOLUTE
    ..\\Driver\\usart1.c                     0x00000000   Number         0  usart1.o ABSOLUTE
    ..\\Driver\\usart2.c                     0x00000000   Number         0  usart2.o ABSOLUTE
    ..\\Driver\\usart3.c                     0x00000000   Number         0  usart3.o ABSOLUTE
    ..\\USB\\CONFIG\\hw_config.c             0x00000000   Number         0  hw_config.o ABSOLUTE
    ..\\USB\\CONFIG\\usb_desc.c              0x00000000   Number         0  usb_desc.o ABSOLUTE
    ..\\USB\\CONFIG\\usb_endp.c              0x00000000   Number         0  usb_endp.o ABSOLUTE
    ..\\USB\\CONFIG\\usb_istr.c              0x00000000   Number         0  usb_istr.o ABSOLUTE
    ..\\USB\\CONFIG\\usb_prop.c              0x00000000   Number         0  usb_prop.o ABSOLUTE
    ..\\USB\\CONFIG\\usb_pwr.c               0x00000000   Number         0  usb_pwr.o ABSOLUTE
    ..\\USB\\STM32_USB-FS-Device_Driver\\src\\usb_core.c 0x00000000   Number         0  usb_core.o ABSOLUTE
    ..\\USB\\STM32_USB-FS-Device_Driver\\src\\usb_init.c 0x00000000   Number         0  usb_init.o ABSOLUTE
    ..\\USB\\STM32_USB-FS-Device_Driver\\src\\usb_int.c 0x00000000   Number         0  usb_int.o ABSOLUTE
    ..\\USB\\STM32_USB-FS-Device_Driver\\src\\usb_mem.c 0x00000000   Number         0  usb_mem.o ABSOLUTE
    ..\\USB\\STM32_USB-FS-Device_Driver\\src\\usb_regs.c 0x00000000   Number         0  usb_regs.o ABSOLUTE
    ..\\USB\\STM32_USB-FS-Device_Driver\\src\\usb_sil.c 0x00000000   Number         0  usb_sil.o ABSOLUTE
    ..\\User\\main.c                         0x00000000   Number         0  main.o ABSOLUTE
    RTE\Device\STM32F103C8\startup_stm32f10x_md.s 0x00000000   Number         0  startup_stm32f10x_md.o ABSOLUTE
    RTE\Device\STM32F103C8\system_stm32f10x.c 0x00000000   Number         0  system_stm32f10x.o ABSOLUTE
    RTE\\Device\\STM32F103C8\\system_stm32f10x.c 0x00000000   Number         0  system_stm32f10x.o ABSOLUTE
    d:\Keil_v5\ARM\PACK\Keil\STM32F1xx_DFP\2.2.0\Device\StdPeriph_Driver\src\misc.c 0x00000000   Number         0  misc.o ABSOLUTE
    d:\Keil_v5\ARM\PACK\Keil\STM32F1xx_DFP\2.2.0\Device\StdPeriph_Driver\src\stm32f10x_adc.c 0x00000000   Number         0  stm32f10x_adc.o ABSOLUTE
    d:\Keil_v5\ARM\PACK\Keil\STM32F1xx_DFP\2.2.0\Device\StdPeriph_Driver\src\stm32f10x_crc.c 0x00000000   Number         0  stm32f10x_crc.o ABSOLUTE
    d:\Keil_v5\ARM\PACK\Keil\STM32F1xx_DFP\2.2.0\Device\StdPeriph_Driver\src\stm32f10x_dbgmcu.c 0x00000000   Number         0  stm32f10x_dbgmcu.o ABSOLUTE
    d:\Keil_v5\ARM\PACK\Keil\STM32F1xx_DFP\2.2.0\Device\StdPeriph_Driver\src\stm32f10x_dma.c 0x00000000   Number         0  stm32f10x_dma.o ABSOLUTE
    d:\Keil_v5\ARM\PACK\Keil\STM32F1xx_DFP\2.2.0\Device\StdPeriph_Driver\src\stm32f10x_exti.c 0x00000000   Number         0  stm32f10x_exti.o ABSOLUTE
    d:\Keil_v5\ARM\PACK\Keil\STM32F1xx_DFP\2.2.0\Device\StdPeriph_Driver\src\stm32f10x_flash.c 0x00000000   Number         0  stm32f10x_flash.o ABSOLUTE
    d:\Keil_v5\ARM\PACK\Keil\STM32F1xx_DFP\2.2.0\Device\StdPeriph_Driver\src\stm32f10x_gpio.c 0x00000000   Number         0  stm32f10x_gpio.o ABSOLUTE
    d:\Keil_v5\ARM\PACK\Keil\STM32F1xx_DFP\2.2.0\Device\StdPeriph_Driver\src\stm32f10x_iwdg.c 0x00000000   Number         0  stm32f10x_iwdg.o ABSOLUTE
    d:\Keil_v5\ARM\PACK\Keil\STM32F1xx_DFP\2.2.0\Device\StdPeriph_Driver\src\stm32f10x_rcc.c 0x00000000   Number         0  stm32f10x_rcc.o ABSOLUTE
    d:\Keil_v5\ARM\PACK\Keil\STM32F1xx_DFP\2.2.0\Device\StdPeriph_Driver\src\stm32f10x_spi.c 0x00000000   Number         0  stm32f10x_spi.o ABSOLUTE
    d:\Keil_v5\ARM\PACK\Keil\STM32F1xx_DFP\2.2.0\Device\StdPeriph_Driver\src\stm32f10x_tim.c 0x00000000   Number         0  stm32f10x_tim.o ABSOLUTE
    d:\Keil_v5\ARM\PACK\Keil\STM32F1xx_DFP\2.2.0\Device\StdPeriph_Driver\src\stm32f10x_usart.c 0x00000000   Number         0  stm32f10x_usart.o ABSOLUTE
    d:\\Keil_v5\\ARM\\PACK\\Keil\\STM32F1xx_DFP\\2.2.0\\Device\\StdPeriph_Driver\\src\\misc.c 0x00000000   Number         0  misc.o ABSOLUTE
    d:\\Keil_v5\\ARM\\PACK\\Keil\\STM32F1xx_DFP\\2.2.0\\Device\\StdPeriph_Driver\\src\\stm32f10x_adc.c 0x00000000   Number         0  stm32f10x_adc.o ABSOLUTE
    d:\\Keil_v5\\ARM\\PACK\\Keil\\STM32F1xx_DFP\\2.2.0\\Device\\StdPeriph_Driver\\src\\stm32f10x_crc.c 0x00000000   Number         0  stm32f10x_crc.o ABSOLUTE
    d:\\Keil_v5\\ARM\\PACK\\Keil\\STM32F1xx_DFP\\2.2.0\\Device\\StdPeriph_Driver\\src\\stm32f10x_dbgmcu.c 0x00000000   Number         0  stm32f10x_dbgmcu.o ABSOLUTE
    d:\\Keil_v5\\ARM\\PACK\\Keil\\STM32F1xx_DFP\\2.2.0\\Device\\StdPeriph_Driver\\src\\stm32f10x_dma.c 0x00000000   Number         0  stm32f10x_dma.o ABSOLUTE
    d:\\Keil_v5\\ARM\\PACK\\Keil\\STM32F1xx_DFP\\2.2.0\\Device\\StdPeriph_Driver\\src\\stm32f10x_exti.c 0x00000000   Number         0  stm32f10x_exti.o ABSOLUTE
    d:\\Keil_v5\\ARM\\PACK\\Keil\\STM32F1xx_DFP\\2.2.0\\Device\\StdPeriph_Driver\\src\\stm32f10x_flash.c 0x00000000   Number         0  stm32f10x_flash.o ABSOLUTE
    d:\\Keil_v5\\ARM\\PACK\\Keil\\STM32F1xx_DFP\\2.2.0\\Device\\StdPeriph_Driver\\src\\stm32f10x_gpio.c 0x00000000   Number         0  stm32f10x_gpio.o ABSOLUTE
    d:\\Keil_v5\\ARM\\PACK\\Keil\\STM32F1xx_DFP\\2.2.0\\Device\\StdPeriph_Driver\\src\\stm32f10x_iwdg.c 0x00000000   Number         0  stm32f10x_iwdg.o ABSOLUTE
    d:\\Keil_v5\\ARM\\PACK\\Keil\\STM32F1xx_DFP\\2.2.0\\Device\\StdPeriph_Driver\\src\\stm32f10x_rcc.c 0x00000000   Number         0  stm32f10x_rcc.o ABSOLUTE
    d:\\Keil_v5\\ARM\\PACK\\Keil\\STM32F1xx_DFP\\2.2.0\\Device\\StdPeriph_Driver\\src\\stm32f10x_spi.c 0x00000000   Number         0  stm32f10x_spi.o ABSOLUTE
    d:\\Keil_v5\\ARM\\PACK\\Keil\\STM32F1xx_DFP\\2.2.0\\Device\\StdPeriph_Driver\\src\\stm32f10x_tim.c 0x00000000   Number         0  stm32f10x_tim.o ABSOLUTE
    d:\\Keil_v5\\ARM\\PACK\\Keil\\STM32F1xx_DFP\\2.2.0\\Device\\StdPeriph_Driver\\src\\stm32f10x_usart.c 0x00000000   Number         0  stm32f10x_usart.o ABSOLUTE
    dc.s                                     0x00000000   Number         0  dc.o ABSOLUTE
    RESET                                    0x08000000   Section      236  startup_stm32f10x_md.o(RESET)
    !!!main                                  0x080000ec   Section        8  __main.o(!!!main)
    !!!scatter                               0x080000f4   Section       52  __scatter.o(!!!scatter)
    !!dczerorl2                              0x08000128   Section       90  __dczerorl2.o(!!dczerorl2)
    !!handler_zi                             0x08000184   Section       28  __scatter_zi.o(!!handler_zi)
    .ARM.Collect$$_printf_percent$$00000000  0x080001a0   Section        0  _printf_percent.o(.ARM.Collect$$_printf_percent$$00000000)
    .ARM.Collect$$_printf_percent$$00000001  0x080001a0   Section        6  _printf_n.o(.ARM.Collect$$_printf_percent$$00000001)
    .ARM.Collect$$_printf_percent$$00000002  0x080001a6   Section        6  _printf_p.o(.ARM.Collect$$_printf_percent$$00000002)
    .ARM.Collect$$_printf_percent$$00000003  0x080001ac   Section        6  _printf_f.o(.ARM.Collect$$_printf_percent$$00000003)
    .ARM.Collect$$_printf_percent$$00000004  0x080001b2   Section        6  _printf_e.o(.ARM.Collect$$_printf_percent$$00000004)
    .ARM.Collect$$_printf_percent$$00000005  0x080001b8   Section        6  _printf_g.o(.ARM.Collect$$_printf_percent$$00000005)
    .ARM.Collect$$_printf_percent$$00000006  0x080001be   Section        6  _printf_a.o(.ARM.Collect$$_printf_percent$$00000006)
    .ARM.Collect$$_printf_percent$$00000007  0x080001c4   Section       10  _printf_ll.o(.ARM.Collect$$_printf_percent$$00000007)
    .ARM.Collect$$_printf_percent$$00000008  0x080001ce   Section        6  _printf_i.o(.ARM.Collect$$_printf_percent$$00000008)
    .ARM.Collect$$_printf_percent$$00000009  0x080001d4   Section        6  _printf_d.o(.ARM.Collect$$_printf_percent$$00000009)
    .ARM.Collect$$_printf_percent$$0000000A  0x080001da   Section        6  _printf_u.o(.ARM.Collect$$_printf_percent$$0000000A)
    .ARM.Collect$$_printf_percent$$0000000B  0x080001e0   Section        6  _printf_o.o(.ARM.Collect$$_printf_percent$$0000000B)
    .ARM.Collect$$_printf_percent$$0000000C  0x080001e6   Section        6  _printf_x.o(.ARM.Collect$$_printf_percent$$0000000C)
    .ARM.Collect$$_printf_percent$$0000000D  0x080001ec   Section        6  _printf_lli.o(.ARM.Collect$$_printf_percent$$0000000D)
    .ARM.Collect$$_printf_percent$$0000000E  0x080001f2   Section        6  _printf_lld.o(.ARM.Collect$$_printf_percent$$0000000E)
    .ARM.Collect$$_printf_percent$$0000000F  0x080001f8   Section        6  _printf_llu.o(.ARM.Collect$$_printf_percent$$0000000F)
    .ARM.Collect$$_printf_percent$$00000010  0x080001fe   Section        6  _printf_llo.o(.ARM.Collect$$_printf_percent$$00000010)
    .ARM.Collect$$_printf_percent$$00000011  0x08000204   Section        6  _printf_llx.o(.ARM.Collect$$_printf_percent$$00000011)
    .ARM.Collect$$_printf_percent$$00000012  0x0800020a   Section       10  _printf_l.o(.ARM.Collect$$_printf_percent$$00000012)
    .ARM.Collect$$_printf_percent$$00000013  0x08000214   Section        6  _printf_c.o(.ARM.Collect$$_printf_percent$$00000013)
    .ARM.Collect$$_printf_percent$$00000014  0x0800021a   Section        6  _printf_s.o(.ARM.Collect$$_printf_percent$$00000014)
    .ARM.Collect$$_printf_percent$$00000015  0x08000220   Section        6  _printf_lc.o(.ARM.Collect$$_printf_percent$$00000015)
    .ARM.Collect$$_printf_percent$$00000016  0x08000226   Section        6  _printf_ls.o(.ARM.Collect$$_printf_percent$$00000016)
    .ARM.Collect$$_printf_percent$$00000017  0x0800022c   Section        4  _printf_percent_end.o(.ARM.Collect$$_printf_percent$$00000017)
    .ARM.Collect$$libinit$$00000000          0x08000230   Section        2  libinit.o(.ARM.Collect$$libinit$$00000000)
    .ARM.Collect$$libinit$$00000002          0x08000232   Section        0  libinit2.o(.ARM.Collect$$libinit$$00000002)
    .ARM.Collect$$libinit$$00000004          0x08000232   Section        0  libinit2.o(.ARM.Collect$$libinit$$00000004)
    .ARM.Collect$$libinit$$0000000A          0x08000232   Section        0  libinit2.o(.ARM.Collect$$libinit$$0000000A)
    .ARM.Collect$$libinit$$0000000C          0x08000232   Section        0  libinit2.o(.ARM.Collect$$libinit$$0000000C)
    .ARM.Collect$$libinit$$0000000E          0x08000232   Section        0  libinit2.o(.ARM.Collect$$libinit$$0000000E)
    .ARM.Collect$$libinit$$0000000F          0x08000232   Section        6  libinit2.o(.ARM.Collect$$libinit$$0000000F)
    .ARM.Collect$$libinit$$00000011          0x08000238   Section        0  libinit2.o(.ARM.Collect$$libinit$$00000011)
    .ARM.Collect$$libinit$$00000012          0x08000238   Section       12  libinit2.o(.ARM.Collect$$libinit$$00000012)
    .ARM.Collect$$libinit$$00000013          0x08000244   Section        0  libinit2.o(.ARM.Collect$$libinit$$00000013)
    .ARM.Collect$$libinit$$00000015          0x08000244   Section        0  libinit2.o(.ARM.Collect$$libinit$$00000015)
    .ARM.Collect$$libinit$$00000016          0x08000244   Section       10  libinit2.o(.ARM.Collect$$libinit$$00000016)
    .ARM.Collect$$libinit$$00000017          0x0800024e   Section        0  libinit2.o(.ARM.Collect$$libinit$$00000017)
    .ARM.Collect$$libinit$$00000019          0x0800024e   Section        0  libinit2.o(.ARM.Collect$$libinit$$00000019)
    .ARM.Collect$$libinit$$0000001B          0x0800024e   Section        0  libinit2.o(.ARM.Collect$$libinit$$0000001B)
    .ARM.Collect$$libinit$$0000001D          0x0800024e   Section        0  libinit2.o(.ARM.Collect$$libinit$$0000001D)
    .ARM.Collect$$libinit$$0000001F          0x0800024e   Section        0  libinit2.o(.ARM.Collect$$libinit$$0000001F)
    .ARM.Collect$$libinit$$00000021          0x0800024e   Section        0  libinit2.o(.ARM.Collect$$libinit$$00000021)
    .ARM.Collect$$libinit$$00000023          0x0800024e   Section        0  libinit2.o(.ARM.Collect$$libinit$$00000023)
    .ARM.Collect$$libinit$$00000025          0x0800024e   Section        0  libinit2.o(.ARM.Collect$$libinit$$00000025)
    .ARM.Collect$$libinit$$0000002C          0x0800024e   Section        0  libinit2.o(.ARM.Collect$$libinit$$0000002C)
    .ARM.Collect$$libinit$$0000002E          0x0800024e   Section        0  libinit2.o(.ARM.Collect$$libinit$$0000002E)
    .ARM.Collect$$libinit$$00000030          0x0800024e   Section        0  libinit2.o(.ARM.Collect$$libinit$$00000030)
    .ARM.Collect$$libinit$$00000032          0x0800024e   Section        0  libinit2.o(.ARM.Collect$$libinit$$00000032)
    .ARM.Collect$$libinit$$00000033          0x0800024e   Section        2  libinit2.o(.ARM.Collect$$libinit$$00000033)
    .ARM.Collect$$libshutdown$$00000000      0x08000250   Section        2  libshutdown.o(.ARM.Collect$$libshutdown$$00000000)
    .ARM.Collect$$libshutdown$$00000002      0x08000252   Section        0  libshutdown2.o(.ARM.Collect$$libshutdown$$00000002)
    .ARM.Collect$$libshutdown$$00000004      0x08000252   Section        0  libshutdown2.o(.ARM.Collect$$libshutdown$$00000004)
    .ARM.Collect$$libshutdown$$00000007      0x08000252   Section        0  libshutdown2.o(.ARM.Collect$$libshutdown$$00000007)
    .ARM.Collect$$libshutdown$$0000000A      0x08000252   Section        0  libshutdown2.o(.ARM.Collect$$libshutdown$$0000000A)
    .ARM.Collect$$libshutdown$$0000000C      0x08000252   Section        0  libshutdown2.o(.ARM.Collect$$libshutdown$$0000000C)
    .ARM.Collect$$libshutdown$$0000000F      0x08000252   Section        0  libshutdown2.o(.ARM.Collect$$libshutdown$$0000000F)
    .ARM.Collect$$libshutdown$$00000010      0x08000252   Section        2  libshutdown2.o(.ARM.Collect$$libshutdown$$00000010)
    .ARM.Collect$$rtentry$$00000000          0x08000254   Section        0  __rtentry.o(.ARM.Collect$$rtentry$$00000000)
    .ARM.Collect$$rtentry$$00000002          0x08000254   Section        0  __rtentry2.o(.ARM.Collect$$rtentry$$00000002)
    .ARM.Collect$$rtentry$$00000004          0x08000254   Section        6  __rtentry4.o(.ARM.Collect$$rtentry$$00000004)
    .ARM.Collect$$rtentry$$00000009          0x0800025a   Section        0  __rtentry2.o(.ARM.Collect$$rtentry$$00000009)
    .ARM.Collect$$rtentry$$0000000A          0x0800025a   Section        4  __rtentry2.o(.ARM.Collect$$rtentry$$0000000A)
    .ARM.Collect$$rtentry$$0000000C          0x0800025e   Section        0  __rtentry2.o(.ARM.Collect$$rtentry$$0000000C)
    .ARM.Collect$$rtentry$$0000000D          0x0800025e   Section        8  __rtentry2.o(.ARM.Collect$$rtentry$$0000000D)
    .ARM.Collect$$rtexit$$00000000           0x08000266   Section        2  rtexit.o(.ARM.Collect$$rtexit$$00000000)
    .ARM.Collect$$rtexit$$00000002           0x08000268   Section        0  rtexit2.o(.ARM.Collect$$rtexit$$00000002)
    .ARM.Collect$$rtexit$$00000003           0x08000268   Section        4  rtexit2.o(.ARM.Collect$$rtexit$$00000003)
    .ARM.Collect$$rtexit$$00000004           0x0800026c   Section        6  rtexit2.o(.ARM.Collect$$rtexit$$00000004)
    .text                                    0x08000274   Section       64  startup_stm32f10x_md.o(.text)
    .text                                    0x080002b4   Section        2  use_no_semi_2.o(.text)
    .text                                    0x080002b8   Section        0  vsprintf.o(.text)
    .text                                    0x080002dc   Section        0  __2printf.o(.text)
    .text                                    0x080002f4   Section        0  _printf_dec.o(.text)
    .text                                    0x0800036c   Section        0  __printf_flags_ss_wp.o(.text)
    .text                                    0x080004f4   Section        0  strlen.o(.text)
    .text                                    0x08000532   Section        0  heapauxi.o(.text)
    .text                                    0x08000538   Section        2  use_no_semi.o(.text)
    .text                                    0x0800053a   Section        0  _printf_pad.o(.text)
    .text                                    0x08000588   Section        0  _printf_truncate.o(.text)
    .text                                    0x080005ac   Section        0  _printf_str.o(.text)
    .text                                    0x080005fe   Section        0  _printf_intcommon.o(.text)
    .text                                    0x080006b0   Section        0  _printf_charcount.o(.text)
    .text                                    0x080006d8   Section        0  _printf_char_common.o(.text)
    _printf_input_char                       0x080006d9   Thumb Code    10  _printf_char_common.o(.text)
    .text                                    0x08000708   Section        0  _sputc.o(.text)
    .text                                    0x08000714   Section        0  _printf_char_file.o(.text)
    .text                                    0x08000738   Section        0  _printf_wctomb.o(.text)
    .text                                    0x080007f4   Section        0  _printf_longlong_dec.o(.text)
    .text                                    0x08000870   Section        0  _printf_oct_int_ll.o(.text)
    _printf_longlong_oct_internal            0x08000871   Thumb Code     0  _printf_oct_int_ll.o(.text)
    .text                                    0x080008e0   Section        0  _printf_hex_int_ll_ptr.o(.text)
    _printf_hex_common                       0x080008e1   Thumb Code     0  _printf_hex_int_ll_ptr.o(.text)
    .text                                    0x08000974   Section      138  lludiv10.o(.text)
    .text                                    0x080009fe   Section        0  _printf_fp_dec.o(.text)
    _fp_digits                               0x08000a01   Thumb Code   428  _printf_fp_dec.o(.text)
    .text                                    0x08000e18   Section        0  _printf_fp_hex.o(.text)
    .text                                    0x08001114   Section        0  _printf_char.o(.text)
    .text                                    0x08001140   Section        0  _printf_wchar.o(.text)
    .text                                    0x0800116c   Section        0  ferror.o(.text)
    .text                                    0x08001174   Section        0  _wcrtomb.o(.text)
    .text                                    0x080011b4   Section       74  sys_stackheap_outer.o(.text)
    .text                                    0x08001200   Section       16  rt_ctype_table.o(.text)
    .text                                    0x08001210   Section        8  rt_locale_intlibspace.o(.text)
    .text                                    0x08001218   Section        0  _printf_fp_infnan.o(.text)
    .text                                    0x08001298   Section        0  bigflt0.o(.text)
    .text                                    0x08001374   Section        0  exit.o(.text)
    .text                                    0x08001388   Section        8  libspace.o(.text)
    .text                                    0x08001390   Section      128  strcmpv7m.o(.text)
    CL$$btod_d2e                             0x08001410   Section       62  btod.o(CL$$btod_d2e)
    CL$$btod_d2e_denorm_low                  0x0800144e   Section       70  btod.o(CL$$btod_d2e_denorm_low)
    CL$$btod_d2e_norm_op1                    0x08001494   Section       96  btod.o(CL$$btod_d2e_norm_op1)
    CL$$btod_div_common                      0x080014f4   Section      824  btod.o(CL$$btod_div_common)
    CL$$btod_e2e                             0x0800182c   Section      198  btod.o(CL$$btod_e2e)
    CL$$btod_ediv                            0x080018f2   Section       40  btod.o(CL$$btod_ediv)
    CL$$btod_emul                            0x0800191a   Section       40  btod.o(CL$$btod_emul)
    CL$$btod_mult_common                     0x08001942   Section      580  btod.o(CL$$btod_mult_common)
    i.ByteSwap                               0x08001b86   Section        0  usb_regs.o(i.ByteSwap)
    i.CTR_LP                                 0x08001b94   Section        0  usb_int.o(i.CTR_LP)
    i.ClearDTOG_RX                           0x08001e1c   Section        0  usb_regs.o(i.ClearDTOG_RX)
    i.ClearDTOG_TX                           0x08001e50   Section        0  usb_regs.o(i.ClearDTOG_TX)
    i.Clear_Status_Out                       0x08001e84   Section        0  usb_regs.o(i.Clear_Status_Out)
    i.DMA1_Channel2_IRQHandler               0x08001eac   Section        0  usart3.o(i.DMA1_Channel2_IRQHandler)
    i.DMA1_Channel4_IRQHandler               0x08001edc   Section        0  usart1.o(i.DMA1_Channel4_IRQHandler)
    i.DMA1_Channel7_IRQHandler               0x08001f14   Section        0  usart2.o(i.DMA1_Channel7_IRQHandler)
    i.DMA_ClearFlag                          0x08001f4c   Section        0  stm32f10x_dma.o(i.DMA_ClearFlag)
    i.DMA_ClearITPendingBit                  0x08001f68   Section        0  stm32f10x_dma.o(i.DMA_ClearITPendingBit)
    i.DMA_Cmd                                0x08001f84   Section        0  stm32f10x_dma.o(i.DMA_Cmd)
    i.DMA_GetCurrDataCounter                 0x08001f9c   Section        0  stm32f10x_dma.o(i.DMA_GetCurrDataCounter)
    i.DMA_GetFlagStatus                      0x08001fa4   Section        0  stm32f10x_dma.o(i.DMA_GetFlagStatus)
    i.DMA_GetITStatus                        0x08001fd0   Section        0  stm32f10x_dma.o(i.DMA_GetITStatus)
    i.DMA_ITConfig                           0x08001ffc   Section        0  stm32f10x_dma.o(i.DMA_ITConfig)
    i.DMA_Init                               0x0800200e   Section        0  stm32f10x_dma.o(i.DMA_Init)
    i.DMA_SetCurrDataCounter                 0x0800204a   Section        0  stm32f10x_dma.o(i.DMA_SetCurrDataCounter)
    i.DataStageIn                            0x08002050   Section        0  usb_core.o(i.DataStageIn)
    DataStageIn                              0x08002051   Thumb Code   166  usb_core.o(i.DataStageIn)
    i.DataStageOut                           0x08002110   Section        0  usb_core.o(i.DataStageOut)
    DataStageOut                             0x08002111   Thumb Code   166  usb_core.o(i.DataStageOut)
    i.Data_Setup0                            0x080021cc   Section        0  usb_core.o(i.Data_Setup0)
    Data_Setup0                              0x080021cd   Thumb Code   628  usb_core.o(i.Data_Setup0)
    i.EP1_IN_Callback                        0x08002464   Section        0  usb_endp.o(i.EP1_IN_Callback)
    i.EP3_OUT_Callback                       0x080024f4   Section        0  usb_endp.o(i.EP3_OUT_Callback)
    i.EXTI_ClearITPendingBit                 0x08002514   Section        0  stm32f10x_exti.o(i.EXTI_ClearITPendingBit)
    i.EXTI_Init                              0x08002520   Section        0  stm32f10x_exti.o(i.EXTI_Init)
    i.Enter_LowPowerMode                     0x080025b4   Section        0  hw_config.o(i.Enter_LowPowerMode)
    i.GPIO_Init                              0x080025e4   Section        0  stm32f10x_gpio.o(i.GPIO_Init)
    i.GPIO_ReadInputDataBit                  0x080026fa   Section        0  stm32f10x_gpio.o(i.GPIO_ReadInputDataBit)
    i.GPIO_ResetBits                         0x0800270c   Section        0  stm32f10x_gpio.o(i.GPIO_ResetBits)
    i.GPIO_SetBits                           0x08002710   Section        0  stm32f10x_gpio.o(i.GPIO_SetBits)
    i.GetEPRxAddr                            0x08002714   Section        0  usb_regs.o(i.GetEPRxAddr)
    i.GetEPRxCount                           0x08002734   Section        0  usb_regs.o(i.GetEPRxCount)
    i.GetEPTxAddr                            0x08002758   Section        0  usb_regs.o(i.GetEPTxAddr)
    i.Get_SerialNum                          0x08002778   Section        0  hw_config.o(i.Get_SerialNum)
    i.In0_Process                            0x080027ac   Section        0  usb_core.o(i.In0_Process)
    i.IntToUnicode                           0x0800281c   Section        0  hw_config.o(i.IntToUnicode)
    i.Leave_LowPowerMode                     0x0800285c   Section        0  hw_config.o(i.Leave_LowPowerMode)
    i.MG_Get                                 0x0800289c   Section        0  gpio.o(i.MG_Get)
    i.MG_Input                               0x080028c0   Section        0  gpio.o(i.MG_Input)
    i.MG_Output                              0x08002908   Section        0  gpio.o(i.MG_Output)
    i.MG_PIN_F                               0x08002938   Section        0  gpio.o(i.MG_PIN_F)
    i.MG_PORT_F                              0x080029a8   Section        0  gpio.o(i.MG_PORT_F)
    i.MG_RCC                                 0x080029f8   Section        0  gpio.o(i.MG_RCC)
    i.MG_Set                                 0x08002a56   Section        0  gpio.o(i.MG_Set)
    i.MI2C_End                               0x08002a88   Section        0  mi2c.o(i.MI2C_End)
    i.MI2C_Get                               0x08002ace   Section        0  mi2c.o(i.MI2C_Get)
    i.MI2C_GetAck                            0x08002adc   Section        0  mi2c.o(i.MI2C_GetAck)
    i.MI2C_In                                0x08002b2c   Section        0  mi2c.o(i.MI2C_In)
    i.MI2C_Init                              0x08002b3c   Section        0  mi2c.o(i.MI2C_Init)
    i.MI2C_Out                               0x08002b72   Section        0  mi2c.o(i.MI2C_Out)
    i.MI2C_Read                              0x08002b80   Section        0  mi2c.o(i.MI2C_Read)
    i.MI2C_ReadReg                           0x08002c0c   Section        0  mi2c.o(i.MI2C_ReadReg)
    i.MI2C_Set                               0x08002c82   Section        0  mi2c.o(i.MI2C_Set)
    i.MI2C_SetNoAck                          0x08002ca2   Section        0  mi2c.o(i.MI2C_SetNoAck)
    i.MI2C_Start                             0x08002ce0   Section        0  mi2c.o(i.MI2C_Start)
    i.MI2C_Write                             0x08002d26   Section        0  mi2c.o(i.MI2C_Write)
    i.NOP_Process                            0x08002dac   Section        0  usb_core.o(i.NOP_Process)
    i.NVIC_Init                              0x08002db0   Section        0  misc.o(i.NVIC_Init)
    i.NVIC_PriorityGroupConfig               0x08002e20   Section        0  misc.o(i.NVIC_PriorityGroupConfig)
    i.NoData_Setup0                          0x08002e34   Section        0  usb_core.o(i.NoData_Setup0)
    NoData_Setup0                            0x08002e35   Thumb Code   290  usb_core.o(i.NoData_Setup0)
    i.Out0_Process                           0x08002f6c   Section        0  usb_core.o(i.Out0_Process)
    i.PMAToUserBufferCopy                    0x08002fbc   Section        0  usb_mem.o(i.PMAToUserBufferCopy)
    i.Post0_Process                          0x08002fe4   Section        0  usb_core.o(i.Post0_Process)
    i.PowerOn                                0x0800302c   Section        0  usb_pwr.o(i.PowerOn)
    i.RCC_AHBPeriphClockCmd                  0x0800306c   Section        0  stm32f10x_rcc.o(i.RCC_AHBPeriphClockCmd)
    i.RCC_APB1PeriphClockCmd                 0x0800308c   Section        0  stm32f10x_rcc.o(i.RCC_APB1PeriphClockCmd)
    i.RCC_APB1PeriphResetCmd                 0x080030ac   Section        0  stm32f10x_rcc.o(i.RCC_APB1PeriphResetCmd)
    i.RCC_APB2PeriphClockCmd                 0x080030cc   Section        0  stm32f10x_rcc.o(i.RCC_APB2PeriphClockCmd)
    i.RCC_APB2PeriphResetCmd                 0x080030ec   Section        0  stm32f10x_rcc.o(i.RCC_APB2PeriphResetCmd)
    i.RCC_GetClocksFreq                      0x0800310c   Section        0  stm32f10x_rcc.o(i.RCC_GetClocksFreq)
    i.RCC_USBCLKConfig                       0x080031e0   Section        0  stm32f10x_rcc.o(i.RCC_USBCLKConfig)
    i.Resume                                 0x080031ec   Section        0  usb_pwr.o(i.Resume)
    i.Resume_Init                            0x080032bc   Section        0  usb_pwr.o(i.Resume_Init)
    i.SOF_Callback                           0x080032e0   Section        0  usb_endp.o(i.SOF_Callback)
    i.SetBTABLE                              0x08003310   Section        0  usb_regs.o(i.SetBTABLE)
    i.SetDeviceAddress                       0x08003320   Section        0  usb_core.o(i.SetDeviceAddress)
    i.SetEPRxAddr                            0x08003370   Section        0  usb_regs.o(i.SetEPRxAddr)
    i.SetEPRxCount                           0x08003394   Section        0  usb_regs.o(i.SetEPRxCount)
    i.SetEPRxStatus                          0x080033e0   Section        0  usb_regs.o(i.SetEPRxStatus)
    i.SetEPRxValid                           0x08003420   Section        0  usb_regs.o(i.SetEPRxValid)
    i.SetEPTxAddr                            0x08003454   Section        0  usb_regs.o(i.SetEPTxAddr)
    i.SetEPTxCount                           0x08003474   Section        0  usb_regs.o(i.SetEPTxCount)
    i.SetEPTxStatus                          0x08003490   Section        0  usb_regs.o(i.SetEPTxStatus)
    i.SetEPTxValid                           0x080034d0   Section        0  usb_regs.o(i.SetEPTxValid)
    i.SetEPType                              0x08003504   Section        0  usb_regs.o(i.SetEPType)
    i.SetSysClock                            0x08003528   Section        0  system_stm32f10x.o(i.SetSysClock)
    SetSysClock                              0x08003529   Thumb Code     8  system_stm32f10x.o(i.SetSysClock)
    i.SetSysClockTo72                        0x08003530   Section        0  system_stm32f10x.o(i.SetSysClockTo72)
    SetSysClockTo72                          0x08003531   Thumb Code   214  system_stm32f10x.o(i.SetSysClockTo72)
    i.Set_USBClock                           0x08003610   Section        0  hw_config.o(i.Set_USBClock)
    i.Setup0_Process                         0x08003624   Section        0  usb_core.o(i.Setup0_Process)
    i.Standard_ClearFeature                  0x080036dc   Section        0  usb_core.o(i.Standard_ClearFeature)
    i.Standard_GetConfiguration              0x08003848   Section        0  usb_core.o(i.Standard_GetConfiguration)
    i.Standard_GetDescriptorData             0x08003874   Section        0  usb_core.o(i.Standard_GetDescriptorData)
    i.Standard_GetInterface                  0x08003898   Section        0  usb_core.o(i.Standard_GetInterface)
    i.Standard_GetStatus                     0x080038c4   Section        0  usb_core.o(i.Standard_GetStatus)
    i.Standard_SetConfiguration              0x080039c4   Section        0  usb_core.o(i.Standard_SetConfiguration)
    i.Standard_SetDeviceFeature              0x08003a0c   Section        0  usb_core.o(i.Standard_SetDeviceFeature)
    i.Standard_SetEndPointFeature            0x08003a34   Section        0  usb_core.o(i.Standard_SetEndPointFeature)
    i.Standard_SetInterface                  0x08003b04   Section        0  usb_core.o(i.Standard_SetInterface)
    i.Suspend                                0x08003b70   Section        0  usb_pwr.o(i.Suspend)
    i.SysTick_CLKSourceConfig                0x08003c0c   Section        0  misc.o(i.SysTick_CLKSourceConfig)
    i.SystemInit                             0x08003c34   Section        0  system_stm32f10x.o(i.SystemInit)
    i.USART1_Configuration                   0x08003c94   Section        0  usart1.o(i.USART1_Configuration)
    i.USART1_DMASendWords                    0x08003e38   Section        0  usart1.o(i.USART1_DMASendWords)
    i.USART1_IRQHandler                      0x08003ec8   Section        0  usart1.o(i.USART1_IRQHandler)
    i.USART1_OnRecv                          0x08003f3c   Section        0  usart1.o(i.USART1_OnRecv)
    i.USART1_OnSend                          0x08003f3e   Section        0  usart1.o(i.USART1_OnSend)
    i.USART1_SendWords                       0x08003f40   Section        0  usart1.o(i.USART1_SendWords)
    i.USART2_IRQHandler                      0x08003f84   Section        0  usart2.o(i.USART2_IRQHandler)
    i.USART2_OnRecv                          0x08003ff8   Section        0  usart2.o(i.USART2_OnRecv)
    i.USART2_OnSend                          0x08003ffa   Section        0  usart2.o(i.USART2_OnSend)
    i.USART3_IRQHandler                      0x08003ffc   Section        0  usart3.o(i.USART3_IRQHandler)
    i.USART3_OnRecv                          0x08004070   Section        0  usart3.o(i.USART3_OnRecv)
    i.USART3_OnSend                          0x08004072   Section        0  usart3.o(i.USART3_OnSend)
    i.USART_ClearITPendingBit                0x08004074   Section        0  stm32f10x_usart.o(i.USART_ClearITPendingBit)
    i.USART_Cmd                              0x08004092   Section        0  stm32f10x_usart.o(i.USART_Cmd)
    i.USART_Config                           0x080040ac   Section        0  hw_config.o(i.USART_Config)
    i.USART_DMACmd                           0x08004160   Section        0  stm32f10x_usart.o(i.USART_DMACmd)
    i.USART_DeInit                           0x08004174   Section        0  stm32f10x_usart.o(i.USART_DeInit)
    i.USART_GetFlagStatus                    0x08004210   Section        0  stm32f10x_usart.o(i.USART_GetFlagStatus)
    i.USART_GetITStatus                      0x0800422a   Section        0  stm32f10x_usart.o(i.USART_GetITStatus)
    i.USART_ITConfig                         0x0800427e   Section        0  stm32f10x_usart.o(i.USART_ITConfig)
    i.USART_Init                             0x080042c8   Section        0  stm32f10x_usart.o(i.USART_Init)
    i.USART_ReceiveData                      0x080043a0   Section        0  stm32f10x_usart.o(i.USART_ReceiveData)
    i.USART_SendData                         0x080043aa   Section        0  stm32f10x_usart.o(i.USART_SendData)
    i.USBWakeUp_IRQHandler                   0x080043b2   Section        0  hw_config.o(i.USBWakeUp_IRQHandler)
    i.USB_Cable_Config                       0x080043c0   Section        0  hw_config.o(i.USB_Cable_Config)
    i.USB_Init                               0x08004408   Section        0  usb_init.o(i.USB_Init)
    i.USB_Interrupts_Config                  0x08004444   Section        0  hw_config.o(i.USB_Interrupts_Config)
    i.USB_Istr                               0x08004498   Section        0  usb_istr.o(i.USB_Istr)
    i.USB_LP_CAN1_RX0_IRQHandler             0x08004668   Section        0  hw_config.o(i.USB_LP_CAN1_RX0_IRQHandler)
    i.USB_Port_Set                           0x08004670   Section        0  hw_config.o(i.USB_Port_Set)
    i.USB_SIL_Init                           0x080046c8   Section        0  usb_sil.o(i.USB_SIL_Init)
    i.USB_SIL_Read                           0x080046ec   Section        0  usb_sil.o(i.USB_SIL_Read)
    i.USB_To_USART_Send_Data                 0x0800471c   Section        0  hw_config.o(i.USB_To_USART_Send_Data)
    i.USB_USART_SendData                     0x0800479c   Section        0  hw_config.o(i.USB_USART_SendData)
    i.UserToPMABufferCopy                    0x080047cc   Section        0  usb_mem.o(i.UserToPMABufferCopy)
    i.Virtual_Com_Port_Data_Setup            0x08004804   Section        0  usb_prop.o(i.Virtual_Com_Port_Data_Setup)
    i.Virtual_Com_Port_GetConfigDescriptor   0x08004868   Section        0  usb_prop.o(i.Virtual_Com_Port_GetConfigDescriptor)
    i.Virtual_Com_Port_GetDeviceDescriptor   0x0800487c   Section        0  usb_prop.o(i.Virtual_Com_Port_GetDeviceDescriptor)
    i.Virtual_Com_Port_GetLineCoding         0x08004890   Section        0  usb_prop.o(i.Virtual_Com_Port_GetLineCoding)
    i.Virtual_Com_Port_GetStringDescriptor   0x080048ac   Section        0  usb_prop.o(i.Virtual_Com_Port_GetStringDescriptor)
    i.Virtual_Com_Port_Get_Interface_Setting 0x080048d4   Section        0  usb_prop.o(i.Virtual_Com_Port_Get_Interface_Setting)
    i.Virtual_Com_Port_NoData_Setup          0x080048ec   Section        0  usb_prop.o(i.Virtual_Com_Port_NoData_Setup)
    i.Virtual_Com_Port_Reset                 0x08004914   Section        0  usb_prop.o(i.Virtual_Com_Port_Reset)
    i.Virtual_Com_Port_SetConfiguration      0x080049fc   Section        0  usb_prop.o(i.Virtual_Com_Port_SetConfiguration)
    i.Virtual_Com_Port_SetDeviceAddress      0x08004a14   Section        0  usb_prop.o(i.Virtual_Com_Port_SetDeviceAddress)
    i.Virtual_Com_Port_SetLineCoding         0x08004a20   Section        0  usb_prop.o(i.Virtual_Com_Port_SetLineCoding)
    i.Virtual_Com_Port_Status_In             0x08004a3c   Section        0  usb_prop.o(i.Virtual_Com_Port_Status_In)
    i.Virtual_Com_Port_Status_Out            0x08004a58   Section        0  usb_prop.o(i.Virtual_Com_Port_Status_Out)
    i.Virtual_Com_Port_init                  0x08004a5c   Section        0  usb_prop.o(i.Virtual_Com_Port_init)
    i.__ARM_fpclassify                       0x08004a84   Section        0  fpclassify.o(i.__ARM_fpclassify)
    i._is_digit                              0x08004aac   Section        0  __printf_wp.o(i._is_digit)
    i._sys_exit                              0x08004aba   Section        0  bstring.o(i._sys_exit)
    i.atoi                                   0x08004abe   Section        0  bstring.o(i.atoi)
    i.delay_init                             0x08004b20   Section        0  delay.o(i.delay_init)
    i.delay_ms                               0x08004b58   Section        0  delay.o(i.delay_ms)
    i.delayus                                0x08004bcc   Section        0  delay.o(i.delayus)
    i.finish                                 0x08004be6   Section        0  main.o(i.finish)
    i.fputc                                  0x08004be8   Section        0  bstring.o(i.fputc)
    i.get                                    0x08004c04   Section        0  main.o(i.get)
    i.itoa                                   0x08004c06   Section        0  bstring.o(i.itoa)
    i.main                                   0x08004c68   Section        0  main.o(i.main)
    i.usb_printf                             0x08004dbc   Section        0  hw_config.o(i.usb_printf)
    locale$$code                             0x08004df8   Section       44  lc_numeric_c.o(locale$$code)
    locale$$code                             0x08004e24   Section       44  lc_ctype_c.o(locale$$code)
    x$fpl$printf1                            0x08004e50   Section        4  printf1.o(x$fpl$printf1)
    x$fpl$printf2                            0x08004e54   Section        4  printf2.o(x$fpl$printf2)
    .constdata                               0x08004e58   Section      177  usb_desc.o(.constdata)
    x$fpl$usenofp                            0x08004e58   Section        0  usenofp.o(x$fpl$usenofp)
    .constdata                               0x08004f09   Section       17  __printf_flags_ss_wp.o(.constdata)
    maptable                                 0x08004f09   Data          17  __printf_flags_ss_wp.o(.constdata)
    .constdata                               0x08004f1c   Section        8  _printf_wctomb.o(.constdata)
    initial_mbstate                          0x08004f1c   Data           8  _printf_wctomb.o(.constdata)
    .constdata                               0x08004f24   Section       40  _printf_hex_int_ll_ptr.o(.constdata)
    uc_hextab                                0x08004f24   Data          20  _printf_hex_int_ll_ptr.o(.constdata)
    lc_hextab                                0x08004f38   Data          20  _printf_hex_int_ll_ptr.o(.constdata)
    .constdata                               0x08004f4c   Section       38  _printf_fp_hex.o(.constdata)
    lc_hextab                                0x08004f4c   Data          19  _printf_fp_hex.o(.constdata)
    uc_hextab                                0x08004f5f   Data          19  _printf_fp_hex.o(.constdata)
    .constdata                               0x08004f74   Section      148  bigflt0.o(.constdata)
    tenpwrs_x                                0x08004f74   Data          60  bigflt0.o(.constdata)
    tenpwrs_i                                0x08004fb0   Data          64  bigflt0.o(.constdata)
    locale$$data                             0x08005028   Section       28  lc_numeric_c.o(locale$$data)
    __lcnum_c_name                           0x0800502c   Data           2  lc_numeric_c.o(locale$$data)
    __lcnum_c_start                          0x08005034   Data           0  lc_numeric_c.o(locale$$data)
    __lcnum_c_point                          0x08005040   Data           0  lc_numeric_c.o(locale$$data)
    __lcnum_c_thousands                      0x08005042   Data           0  lc_numeric_c.o(locale$$data)
    __lcnum_c_grouping                       0x08005043   Data           0  lc_numeric_c.o(locale$$data)
    locale$$data                             0x08005044   Section      272  lc_ctype_c.o(locale$$data)
    __lcnum_c_end                            0x08005044   Data           0  lc_numeric_c.o(locale$$data)
    __lcctype_c_name                         0x08005048   Data           2  lc_ctype_c.o(locale$$data)
    __lcctype_c_start                        0x08005050   Data           0  lc_ctype_c.o(locale$$data)
    __lcctype_c_end                          0x08005154   Data           0  lc_ctype_c.o(locale$$data)
    .data                                    0x20000000   Section       12  main.o(.data)
    .data                                    0x2000000c   Section        8  delay.o(.data)
    fac_us                                   0x2000000c   Data           4  delay.o(.data)
    fac_ms                                   0x20000010   Data           4  delay.o(.data)
    .data                                    0x20000014   Section        4  bstring.o(.data)
    .data                                    0x20000018   Section        8  usart1.o(.data)
    .data                                    0x20000020   Section        8  usart2.o(.data)
    .data                                    0x20000028   Section        8  usart3.o(.data)
    .data                                    0x20000030   Section        2  hw_config.o(.data)
    .data                                    0x20000032   Section       26  usb_desc.o(.data)
    .data                                    0x2000004c   Section        4  usb_endp.o(.data)
    FrameCount                               0x2000004c   Data           4  usb_endp.o(.data)
    .data                                    0x20000050   Section       68  usb_istr.o(.data)
    .data                                    0x20000094   Section      148  usb_prop.o(.data)
    .data                                    0x20000128   Section       12  usb_pwr.o(.data)
    .data                                    0x20000134   Section        3  usb_core.o(.data)
    .data                                    0x20000138   Section       20  usb_init.o(.data)
    .data                                    0x2000014c   Section        4  usb_int.o(.data)
    .data                                    0x20000150   Section       20  system_stm32f10x.o(.data)
    .data                                    0x20000164   Section       20  stm32f10x_rcc.o(.data)
    APBAHBPrescTable                         0x20000164   Data          16  stm32f10x_rcc.o(.data)
    ADCPrescTable                            0x20000174   Data           4  stm32f10x_rcc.o(.data)
    .bss                                     0x20000178   Section      512  usart1.o(.bss)
    .bss                                     0x20000378   Section      512  usart2.o(.bss)
    .bss                                     0x20000578   Section      512  usart3.o(.bss)
    .bss                                     0x20000778   Section     1428  hw_config.o(.bss)
    .bss                                     0x20000d0c   Section       64  usb_endp.o(.bss)
    .bss                                     0x20000d4c   Section       32  usb_pwr.o(.bss)
    .bss                                     0x20000d6c   Section       28  usb_init.o(.bss)
    .bss                                     0x20000d88   Section       96  libspace.o(.bss)
    HEAP                                     0x20000de8   Section      512  startup_stm32f10x_md.o(HEAP)
    Heap_Mem                                 0x20000de8   Data         512  startup_stm32f10x_md.o(HEAP)
    STACK                                    0x20000fe8   Section     1024  startup_stm32f10x_md.o(STACK)
    Stack_Mem                                0x20000fe8   Data        1024  startup_stm32f10x_md.o(STACK)
    __initial_sp                             0x200013e8   Data           0  startup_stm32f10x_md.o(STACK)

    Global Symbols

    Symbol Name                              Value     Ov Type        Size  Object(Section)

    BuildAttributes$$THM_ISAv4$P$D$K$B$S$PE$A:L22UL41UL21$X:L11$S22US41US21$IEEE1$IW$USESV6$~STKCKD$USESV7$~SHL$OTIME$ROPI$IEEEJ$EBA8$UX$STANDARDLIB$REQ8$PRES8$EABIv2 0x00000000   Number         0  anon$$obj.o ABSOLUTE
    __ARM_use_no_argv                        0x00000000   Number         0  main.o ABSOLUTE
    _printf_flags                            0x00000000   Number         0  printf_stubs.o ABSOLUTE
    _printf_return_value                     0x00000000   Number         0  printf_stubs.o ABSOLUTE
    _printf_sizespec                         0x00000000   Number         0  printf_stubs.o ABSOLUTE
    _printf_widthprec                        0x00000000   Number         0  printf_stubs.o ABSOLUTE
    __ARM_exceptions_init                     - Undefined Weak Reference
    __alloca_initialize                       - Undefined Weak Reference
    __arm_preinit_                            - Undefined Weak Reference
    __cpp_initialize__aeabi_                  - Undefined Weak Reference
    __cxa_finalize                            - Undefined Weak Reference
    __sigvec_lookup                           - Undefined Weak Reference
    _atexit_init                              - Undefined Weak Reference
    _call_atexit_fns                          - Undefined Weak Reference
    _clock_init                               - Undefined Weak Reference
    _fp_trap_init                             - Undefined Weak Reference
    _fp_trap_shutdown                         - Undefined Weak Reference
    _get_lc_collate                           - Undefined Weak Reference
    _get_lc_monetary                          - Undefined Weak Reference
    _get_lc_time                              - Undefined Weak Reference
    _getenv_init                              - Undefined Weak Reference
    _handle_redirection                       - Undefined Weak Reference
    _init_alloc                               - Undefined Weak Reference
    _init_user_alloc                          - Undefined Weak Reference
    _initio                                   - Undefined Weak Reference
    _mutex_acquire                            - Undefined Weak Reference
    _mutex_release                            - Undefined Weak Reference
    _printf_mbtowc                            - Undefined Weak Reference
    _printf_wc                                - Undefined Weak Reference
    _rand_init                                - Undefined Weak Reference
    _signal_finish                            - Undefined Weak Reference
    _signal_init                              - Undefined Weak Reference
    _terminate_alloc                          - Undefined Weak Reference
    _terminate_user_alloc                     - Undefined Weak Reference
    _terminateio                              - Undefined Weak Reference
    __Vectors_Size                           0x000000ec   Number         0  startup_stm32f10x_md.o ABSOLUTE
    __Vectors                                0x08000000   Data           4  startup_stm32f10x_md.o(RESET)
    __Vectors_End                            0x080000ec   Data           0  startup_stm32f10x_md.o(RESET)
    __main                                   0x080000ed   Thumb Code     8  __main.o(!!!main)
    __scatterload                            0x080000f5   Thumb Code     0  __scatter.o(!!!scatter)
    __scatterload_rt2                        0x080000f5   Thumb Code    44  __scatter.o(!!!scatter)
    __scatterload_rt2_thumb_only             0x080000f5   Thumb Code     0  __scatter.o(!!!scatter)
    __scatterload_null                       0x08000103   Thumb Code     0  __scatter.o(!!!scatter)
    __decompress                             0x08000129   Thumb Code    90  __dczerorl2.o(!!dczerorl2)
    __decompress1                            0x08000129   Thumb Code     0  __dczerorl2.o(!!dczerorl2)
    __scatterload_zeroinit                   0x08000185   Thumb Code    28  __scatter_zi.o(!!handler_zi)
    _printf_n                                0x080001a1   Thumb Code     0  _printf_n.o(.ARM.Collect$$_printf_percent$$00000001)
    _printf_percent                          0x080001a1   Thumb Code     0  _printf_percent.o(.ARM.Collect$$_printf_percent$$00000000)
    _printf_p                                0x080001a7   Thumb Code     0  _printf_p.o(.ARM.Collect$$_printf_percent$$00000002)
    _printf_f                                0x080001ad   Thumb Code     0  _printf_f.o(.ARM.Collect$$_printf_percent$$00000003)
    _printf_e                                0x080001b3   Thumb Code     0  _printf_e.o(.ARM.Collect$$_printf_percent$$00000004)
    _printf_g                                0x080001b9   Thumb Code     0  _printf_g.o(.ARM.Collect$$_printf_percent$$00000005)
    _printf_a                                0x080001bf   Thumb Code     0  _printf_a.o(.ARM.Collect$$_printf_percent$$00000006)
    _printf_ll                               0x080001c5   Thumb Code     0  _printf_ll.o(.ARM.Collect$$_printf_percent$$00000007)
    _printf_i                                0x080001cf   Thumb Code     0  _printf_i.o(.ARM.Collect$$_printf_percent$$00000008)
    _printf_d                                0x080001d5   Thumb Code     0  _printf_d.o(.ARM.Collect$$_printf_percent$$00000009)
    _printf_u                                0x080001db   Thumb Code     0  _printf_u.o(.ARM.Collect$$_printf_percent$$0000000A)
    _printf_o                                0x080001e1   Thumb Code     0  _printf_o.o(.ARM.Collect$$_printf_percent$$0000000B)
    _printf_x                                0x080001e7   Thumb Code     0  _printf_x.o(.ARM.Collect$$_printf_percent$$0000000C)
    _printf_lli                              0x080001ed   Thumb Code     0  _printf_lli.o(.ARM.Collect$$_printf_percent$$0000000D)
    _printf_lld                              0x080001f3   Thumb Code     0  _printf_lld.o(.ARM.Collect$$_printf_percent$$0000000E)
    _printf_llu                              0x080001f9   Thumb Code     0  _printf_llu.o(.ARM.Collect$$_printf_percent$$0000000F)
    _printf_llo                              0x080001ff   Thumb Code     0  _printf_llo.o(.ARM.Collect$$_printf_percent$$00000010)
    _printf_llx                              0x08000205   Thumb Code     0  _printf_llx.o(.ARM.Collect$$_printf_percent$$00000011)
    _printf_l                                0x0800020b   Thumb Code     0  _printf_l.o(.ARM.Collect$$_printf_percent$$00000012)
    _printf_c                                0x08000215   Thumb Code     0  _printf_c.o(.ARM.Collect$$_printf_percent$$00000013)
    _printf_s                                0x0800021b   Thumb Code     0  _printf_s.o(.ARM.Collect$$_printf_percent$$00000014)
    _printf_lc                               0x08000221   Thumb Code     0  _printf_lc.o(.ARM.Collect$$_printf_percent$$00000015)
    _printf_ls                               0x08000227   Thumb Code     0  _printf_ls.o(.ARM.Collect$$_printf_percent$$00000016)
    _printf_percent_end                      0x0800022d   Thumb Code     0  _printf_percent_end.o(.ARM.Collect$$_printf_percent$$00000017)
    __rt_lib_init                            0x08000231   Thumb Code     0  libinit.o(.ARM.Collect$$libinit$$00000000)
    __rt_lib_init_fp_1                       0x08000233   Thumb Code     0  libinit2.o(.ARM.Collect$$libinit$$00000002)
    __rt_lib_init_heap_1                     0x08000233   Thumb Code     0  libinit2.o(.ARM.Collect$$libinit$$0000000A)
    __rt_lib_init_lc_common                  0x08000233   Thumb Code     0  libinit2.o(.ARM.Collect$$libinit$$0000000F)
    __rt_lib_init_preinit_1                  0x08000233   Thumb Code     0  libinit2.o(.ARM.Collect$$libinit$$00000004)
    __rt_lib_init_rand_1                     0x08000233   Thumb Code     0  libinit2.o(.ARM.Collect$$libinit$$0000000E)
    __rt_lib_init_user_alloc_1               0x08000233   Thumb Code     0  libinit2.o(.ARM.Collect$$libinit$$0000000C)
    __rt_lib_init_lc_collate_1               0x08000239   Thumb Code     0  libinit2.o(.ARM.Collect$$libinit$$00000011)
    __rt_lib_init_lc_ctype_2                 0x08000239   Thumb Code     0  libinit2.o(.ARM.Collect$$libinit$$00000012)
    __rt_lib_init_lc_ctype_1                 0x08000245   Thumb Code     0  libinit2.o(.ARM.Collect$$libinit$$00000013)
    __rt_lib_init_lc_monetary_1              0x08000245   Thumb Code     0  libinit2.o(.ARM.Collect$$libinit$$00000015)
    __rt_lib_init_lc_numeric_2               0x08000245   Thumb Code     0  libinit2.o(.ARM.Collect$$libinit$$00000016)
    __rt_lib_init_alloca_1                   0x0800024f   Thumb Code     0  libinit2.o(.ARM.Collect$$libinit$$0000002E)
    __rt_lib_init_argv_1                     0x0800024f   Thumb Code     0  libinit2.o(.ARM.Collect$$libinit$$0000002C)
    __rt_lib_init_atexit_1                   0x0800024f   Thumb Code     0  libinit2.o(.ARM.Collect$$libinit$$0000001B)
    __rt_lib_init_clock_1                    0x0800024f   Thumb Code     0  libinit2.o(.ARM.Collect$$libinit$$00000021)
    __rt_lib_init_cpp_1                      0x0800024f   Thumb Code     0  libinit2.o(.ARM.Collect$$libinit$$00000032)
    __rt_lib_init_exceptions_1               0x0800024f   Thumb Code     0  libinit2.o(.ARM.Collect$$libinit$$00000030)
    __rt_lib_init_fp_trap_1                  0x0800024f   Thumb Code     0  libinit2.o(.ARM.Collect$$libinit$$0000001F)
    __rt_lib_init_getenv_1                   0x0800024f   Thumb Code     0  libinit2.o(.ARM.Collect$$libinit$$00000023)
    __rt_lib_init_lc_numeric_1               0x0800024f   Thumb Code     0  libinit2.o(.ARM.Collect$$libinit$$00000017)
    __rt_lib_init_lc_time_1                  0x0800024f   Thumb Code     0  libinit2.o(.ARM.Collect$$libinit$$00000019)
    __rt_lib_init_return                     0x0800024f   Thumb Code     0  libinit2.o(.ARM.Collect$$libinit$$00000033)
    __rt_lib_init_signal_1                   0x0800024f   Thumb Code     0  libinit2.o(.ARM.Collect$$libinit$$0000001D)
    __rt_lib_init_stdio_1                    0x0800024f   Thumb Code     0  libinit2.o(.ARM.Collect$$libinit$$00000025)
    __rt_lib_shutdown                        0x08000251   Thumb Code     0  libshutdown.o(.ARM.Collect$$libshutdown$$00000000)
    __rt_lib_shutdown_cpp_1                  0x08000253   Thumb Code     0  libshutdown2.o(.ARM.Collect$$libshutdown$$00000002)
    __rt_lib_shutdown_fp_trap_1              0x08000253   Thumb Code     0  libshutdown2.o(.ARM.Collect$$libshutdown$$00000007)
    __rt_lib_shutdown_heap_1                 0x08000253   Thumb Code     0  libshutdown2.o(.ARM.Collect$$libshutdown$$0000000F)
    __rt_lib_shutdown_return                 0x08000253   Thumb Code     0  libshutdown2.o(.ARM.Collect$$libshutdown$$00000010)
    __rt_lib_shutdown_signal_1               0x08000253   Thumb Code     0  libshutdown2.o(.ARM.Collect$$libshutdown$$0000000A)
    __rt_lib_shutdown_stdio_1                0x08000253   Thumb Code     0  libshutdown2.o(.ARM.Collect$$libshutdown$$00000004)
    __rt_lib_shutdown_user_alloc_1           0x08000253   Thumb Code     0  libshutdown2.o(.ARM.Collect$$libshutdown$$0000000C)
    __rt_entry                               0x08000255   Thumb Code     0  __rtentry.o(.ARM.Collect$$rtentry$$00000000)
    __rt_entry_presh_1                       0x08000255   Thumb Code     0  __rtentry2.o(.ARM.Collect$$rtentry$$00000002)
    __rt_entry_sh                            0x08000255   Thumb Code     0  __rtentry4.o(.ARM.Collect$$rtentry$$00000004)
    __rt_entry_li                            0x0800025b   Thumb Code     0  __rtentry2.o(.ARM.Collect$$rtentry$$0000000A)
    __rt_entry_postsh_1                      0x0800025b   Thumb Code     0  __rtentry2.o(.ARM.Collect$$rtentry$$00000009)
    __rt_entry_main                          0x0800025f   Thumb Code     0  __rtentry2.o(.ARM.Collect$$rtentry$$0000000D)
    __rt_entry_postli_1                      0x0800025f   Thumb Code     0  __rtentry2.o(.ARM.Collect$$rtentry$$0000000C)
    __rt_exit                                0x08000267   Thumb Code     0  rtexit.o(.ARM.Collect$$rtexit$$00000000)
    __rt_exit_ls                             0x08000269   Thumb Code     0  rtexit2.o(.ARM.Collect$$rtexit$$00000003)
    __rt_exit_prels_1                        0x08000269   Thumb Code     0  rtexit2.o(.ARM.Collect$$rtexit$$00000002)
    __rt_exit_exit                           0x0800026d   Thumb Code     0  rtexit2.o(.ARM.Collect$$rtexit$$00000004)
    Reset_Handler                            0x08000275   Thumb Code     8  startup_stm32f10x_md.o(.text)
    NMI_Handler                              0x0800027d   Thumb Code     2  startup_stm32f10x_md.o(.text)
    HardFault_Handler                        0x0800027f   Thumb Code     2  startup_stm32f10x_md.o(.text)
    MemManage_Handler                        0x08000281   Thumb Code     2  startup_stm32f10x_md.o(.text)
    BusFault_Handler                         0x08000283   Thumb Code     2  startup_stm32f10x_md.o(.text)
    UsageFault_Handler                       0x08000285   Thumb Code     2  startup_stm32f10x_md.o(.text)
    SVC_Handler                              0x08000287   Thumb Code     2  startup_stm32f10x_md.o(.text)
    DebugMon_Handler                         0x08000289   Thumb Code     2  startup_stm32f10x_md.o(.text)
    PendSV_Handler                           0x0800028b   Thumb Code     2  startup_stm32f10x_md.o(.text)
    SysTick_Handler                          0x0800028d   Thumb Code     2  startup_stm32f10x_md.o(.text)
    ADC1_2_IRQHandler                        0x0800028f   Thumb Code     0  startup_stm32f10x_md.o(.text)
    CAN1_RX1_IRQHandler                      0x0800028f   Thumb Code     0  startup_stm32f10x_md.o(.text)
    CAN1_SCE_IRQHandler                      0x0800028f   Thumb Code     0  startup_stm32f10x_md.o(.text)
    DMA1_Channel1_IRQHandler                 0x0800028f   Thumb Code     0  startup_stm32f10x_md.o(.text)
    DMA1_Channel3_IRQHandler                 0x0800028f   Thumb Code     0  startup_stm32f10x_md.o(.text)
    DMA1_Channel5_IRQHandler                 0x0800028f   Thumb Code     0  startup_stm32f10x_md.o(.text)
    DMA1_Channel6_IRQHandler                 0x0800028f   Thumb Code     0  startup_stm32f10x_md.o(.text)
    EXTI0_IRQHandler                         0x0800028f   Thumb Code     0  startup_stm32f10x_md.o(.text)
    EXTI15_10_IRQHandler                     0x0800028f   Thumb Code     0  startup_stm32f10x_md.o(.text)
    EXTI1_IRQHandler                         0x0800028f   Thumb Code     0  startup_stm32f10x_md.o(.text)
    EXTI2_IRQHandler                         0x0800028f   Thumb Code     0  startup_stm32f10x_md.o(.text)
    EXTI3_IRQHandler                         0x0800028f   Thumb Code     0  startup_stm32f10x_md.o(.text)
    EXTI4_IRQHandler                         0x0800028f   Thumb Code     0  startup_stm32f10x_md.o(.text)
    EXTI9_5_IRQHandler                       0x0800028f   Thumb Code     0  startup_stm32f10x_md.o(.text)
    FLASH_IRQHandler                         0x0800028f   Thumb Code     0  startup_stm32f10x_md.o(.text)
    I2C1_ER_IRQHandler                       0x0800028f   Thumb Code     0  startup_stm32f10x_md.o(.text)
    I2C1_EV_IRQHandler                       0x0800028f   Thumb Code     0  startup_stm32f10x_md.o(.text)
    I2C2_ER_IRQHandler                       0x0800028f   Thumb Code     0  startup_stm32f10x_md.o(.text)
    I2C2_EV_IRQHandler                       0x0800028f   Thumb Code     0  startup_stm32f10x_md.o(.text)
    PVD_IRQHandler                           0x0800028f   Thumb Code     0  startup_stm32f10x_md.o(.text)
    RCC_IRQHandler                           0x0800028f   Thumb Code     0  startup_stm32f10x_md.o(.text)
    RTCAlarm_IRQHandler                      0x0800028f   Thumb Code     0  startup_stm32f10x_md.o(.text)
    RTC_IRQHandler                           0x0800028f   Thumb Code     0  startup_stm32f10x_md.o(.text)
    SPI1_IRQHandler                          0x0800028f   Thumb Code     0  startup_stm32f10x_md.o(.text)
    SPI2_IRQHandler                          0x0800028f   Thumb Code     0  startup_stm32f10x_md.o(.text)
    TAMPER_IRQHandler                        0x0800028f   Thumb Code     0  startup_stm32f10x_md.o(.text)
    TIM1_BRK_IRQHandler                      0x0800028f   Thumb Code     0  startup_stm32f10x_md.o(.text)
    TIM1_CC_IRQHandler                       0x0800028f   Thumb Code     0  startup_stm32f10x_md.o(.text)
    TIM1_TRG_COM_IRQHandler                  0x0800028f   Thumb Code     0  startup_stm32f10x_md.o(.text)
    TIM1_UP_IRQHandler                       0x0800028f   Thumb Code     0  startup_stm32f10x_md.o(.text)
    TIM2_IRQHandler                          0x0800028f   Thumb Code     0  startup_stm32f10x_md.o(.text)
    TIM3_IRQHandler                          0x0800028f   Thumb Code     0  startup_stm32f10x_md.o(.text)
    TIM4_IRQHandler                          0x0800028f   Thumb Code     0  startup_stm32f10x_md.o(.text)
    USB_HP_CAN1_TX_IRQHandler                0x0800028f   Thumb Code     0  startup_stm32f10x_md.o(.text)
    WWDG_IRQHandler                          0x0800028f   Thumb Code     0  startup_stm32f10x_md.o(.text)
    __user_initial_stackheap                 0x08000291   Thumb Code     0  startup_stm32f10x_md.o(.text)
    __use_no_semihosting                     0x080002b5   Thumb Code     2  use_no_semi_2.o(.text)
    vsprintf                                 0x080002b9   Thumb Code    32  vsprintf.o(.text)
    __2printf                                0x080002dd   Thumb Code    20  __2printf.o(.text)
    _printf_int_dec                          0x080002f5   Thumb Code   104  _printf_dec.o(.text)
    __printf                                 0x0800036d   Thumb Code   388  __printf_flags_ss_wp.o(.text)
    strlen                                   0x080004f5   Thumb Code    62  strlen.o(.text)
    __use_two_region_memory                  0x08000533   Thumb Code     2  heapauxi.o(.text)
    __rt_heap_escrow$2region                 0x08000535   Thumb Code     2  heapauxi.o(.text)
    __rt_heap_expand$2region                 0x08000537   Thumb Code     2  heapauxi.o(.text)
    __I$use$semihosting                      0x08000539   Thumb Code     0  use_no_semi.o(.text)
    __use_no_semihosting_swi                 0x08000539   Thumb Code     2  use_no_semi.o(.text)
    _printf_pre_padding                      0x0800053b   Thumb Code    44  _printf_pad.o(.text)
    _printf_post_padding                     0x08000567   Thumb Code    34  _printf_pad.o(.text)
    _printf_truncate_signed                  0x08000589   Thumb Code    18  _printf_truncate.o(.text)
    _printf_truncate_unsigned                0x0800059b   Thumb Code    18  _printf_truncate.o(.text)
    _printf_str                              0x080005ad   Thumb Code    82  _printf_str.o(.text)
    _printf_int_common                       0x080005ff   Thumb Code   178  _printf_intcommon.o(.text)
    _printf_charcount                        0x080006b1   Thumb Code    40  _printf_charcount.o(.text)
    _printf_char_common                      0x080006e3   Thumb Code    32  _printf_char_common.o(.text)
    _sputc                                   0x08000709   Thumb Code    10  _sputc.o(.text)
    _printf_char_file                        0x08000715   Thumb Code    32  _printf_char_file.o(.text)
    _printf_wctomb                           0x08000739   Thumb Code   182  _printf_wctomb.o(.text)
    _printf_longlong_dec                     0x080007f5   Thumb Code   108  _printf_longlong_dec.o(.text)
    _printf_longlong_oct                     0x08000871   Thumb Code    66  _printf_oct_int_ll.o(.text)
    _printf_int_oct                          0x080008b3   Thumb Code    24  _printf_oct_int_ll.o(.text)
    _printf_ll_oct                           0x080008cb   Thumb Code    12  _printf_oct_int_ll.o(.text)
    _printf_longlong_hex                     0x080008e1   Thumb Code    86  _printf_hex_int_ll_ptr.o(.text)
    _printf_int_hex                          0x08000937   Thumb Code    28  _printf_hex_int_ll_ptr.o(.text)
    _printf_ll_hex                           0x08000953   Thumb Code    12  _printf_hex_int_ll_ptr.o(.text)
    _printf_hex_ptr                          0x0800095f   Thumb Code    18  _printf_hex_int_ll_ptr.o(.text)
    _ll_udiv10                               0x08000975   Thumb Code   138  lludiv10.o(.text)
    __lib_sel_fp_printf                      0x080009ff   Thumb Code     2  _printf_fp_dec.o(.text)
    _printf_fp_dec_real                      0x08000bad   Thumb Code   620  _printf_fp_dec.o(.text)
    _printf_fp_hex_real                      0x08000e19   Thumb Code   756  _printf_fp_hex.o(.text)
    _printf_cs_common                        0x08001115   Thumb Code    20  _printf_char.o(.text)
    _printf_char                             0x08001129   Thumb Code    16  _printf_char.o(.text)
    _printf_string                           0x08001139   Thumb Code     8  _printf_char.o(.text)
    _printf_lcs_common                       0x08001141   Thumb Code    20  _printf_wchar.o(.text)
    _printf_wchar                            0x08001155   Thumb Code    16  _printf_wchar.o(.text)
    _printf_wstring                          0x08001165   Thumb Code     8  _printf_wchar.o(.text)
    ferror                                   0x0800116d   Thumb Code     8  ferror.o(.text)
    _wcrtomb                                 0x08001175   Thumb Code    64  _wcrtomb.o(.text)
    __user_setup_stackheap                   0x080011b5   Thumb Code    74  sys_stackheap_outer.o(.text)
    __rt_ctype_table                         0x08001201   Thumb Code    16  rt_ctype_table.o(.text)
    __rt_locale                              0x08001211   Thumb Code     8  rt_locale_intlibspace.o(.text)
    _printf_fp_infnan                        0x08001219   Thumb Code   112  _printf_fp_infnan.o(.text)
    _btod_etento                             0x08001299   Thumb Code   216  bigflt0.o(.text)
    exit                                     0x08001375   Thumb Code    18  exit.o(.text)
    __user_libspace                          0x08001389   Thumb Code     8  libspace.o(.text)
    __user_perproc_libspace                  0x08001389   Thumb Code     0  libspace.o(.text)
    __user_perthread_libspace                0x08001389   Thumb Code     0  libspace.o(.text)
    strcmp                                   0x08001391   Thumb Code   128  strcmpv7m.o(.text)
    _btod_d2e                                0x08001411   Thumb Code    62  btod.o(CL$$btod_d2e)
    _d2e_denorm_low                          0x0800144f   Thumb Code    70  btod.o(CL$$btod_d2e_denorm_low)
    _d2e_norm_op1                            0x08001495   Thumb Code    96  btod.o(CL$$btod_d2e_norm_op1)
    __btod_div_common                        0x080014f5   Thumb Code   696  btod.o(CL$$btod_div_common)
    _e2e                                     0x0800182d   Thumb Code   198  btod.o(CL$$btod_e2e)
    _btod_ediv                               0x080018f3   Thumb Code    40  btod.o(CL$$btod_ediv)
    _btod_emul                               0x0800191b   Thumb Code    40  btod.o(CL$$btod_emul)
    __btod_mult_common                       0x08001943   Thumb Code   580  btod.o(CL$$btod_mult_common)
    ByteSwap                                 0x08001b87   Thumb Code    12  usb_regs.o(i.ByteSwap)
    CTR_LP                                   0x08001b95   Thumb Code   616  usb_int.o(i.CTR_LP)
    ClearDTOG_RX                             0x08001e1d   Thumb Code    48  usb_regs.o(i.ClearDTOG_RX)
    ClearDTOG_TX                             0x08001e51   Thumb Code    48  usb_regs.o(i.ClearDTOG_TX)
    Clear_Status_Out                         0x08001e85   Thumb Code    34  usb_regs.o(i.Clear_Status_Out)
    DMA1_Channel2_IRQHandler                 0x08001ead   Thumb Code    40  usart3.o(i.DMA1_Channel2_IRQHandler)
    DMA1_Channel4_IRQHandler                 0x08001edd   Thumb Code    46  usart1.o(i.DMA1_Channel4_IRQHandler)
    DMA1_Channel7_IRQHandler                 0x08001f15   Thumb Code    46  usart2.o(i.DMA1_Channel7_IRQHandler)
    DMA_ClearFlag                            0x08001f4d   Thumb Code    18  stm32f10x_dma.o(i.DMA_ClearFlag)
    DMA_ClearITPendingBit                    0x08001f69   Thumb Code    18  stm32f10x_dma.o(i.DMA_ClearITPendingBit)
    DMA_Cmd                                  0x08001f85   Thumb Code    24  stm32f10x_dma.o(i.DMA_Cmd)
    DMA_GetCurrDataCounter                   0x08001f9d   Thumb Code     8  stm32f10x_dma.o(i.DMA_GetCurrDataCounter)
    DMA_GetFlagStatus                        0x08001fa5   Thumb Code    36  stm32f10x_dma.o(i.DMA_GetFlagStatus)
    DMA_GetITStatus                          0x08001fd1   Thumb Code    36  stm32f10x_dma.o(i.DMA_GetITStatus)
    DMA_ITConfig                             0x08001ffd   Thumb Code    18  stm32f10x_dma.o(i.DMA_ITConfig)
    DMA_Init                                 0x0800200f   Thumb Code    60  stm32f10x_dma.o(i.DMA_Init)
    DMA_SetCurrDataCounter                   0x0800204b   Thumb Code     4  stm32f10x_dma.o(i.DMA_SetCurrDataCounter)
    EP1_IN_Callback                          0x08002465   Thumb Code   138  usb_endp.o(i.EP1_IN_Callback)
    EP3_OUT_Callback                         0x080024f5   Thumb Code    28  usb_endp.o(i.EP3_OUT_Callback)
    EXTI_ClearITPendingBit                   0x08002515   Thumb Code     6  stm32f10x_exti.o(i.EXTI_ClearITPendingBit)
    EXTI_Init                                0x08002521   Thumb Code   142  stm32f10x_exti.o(i.EXTI_Init)
    Enter_LowPowerMode                       0x080025b5   Thumb Code    16  hw_config.o(i.Enter_LowPowerMode)
    GPIO_Init                                0x080025e5   Thumb Code   278  stm32f10x_gpio.o(i.GPIO_Init)
    GPIO_ReadInputDataBit                    0x080026fb   Thumb Code    18  stm32f10x_gpio.o(i.GPIO_ReadInputDataBit)
    GPIO_ResetBits                           0x0800270d   Thumb Code     4  stm32f10x_gpio.o(i.GPIO_ResetBits)
    GPIO_SetBits                             0x08002711   Thumb Code     4  stm32f10x_gpio.o(i.GPIO_SetBits)
    GetEPRxAddr                              0x08002715   Thumb Code    24  usb_regs.o(i.GetEPRxAddr)
    GetEPRxCount                             0x08002735   Thumb Code    26  usb_regs.o(i.GetEPRxCount)
    GetEPTxAddr                              0x08002759   Thumb Code    22  usb_regs.o(i.GetEPTxAddr)
    Get_SerialNum                            0x08002779   Thumb Code    42  hw_config.o(i.Get_SerialNum)
    In0_Process                              0x080027ad   Thumb Code    98  usb_core.o(i.In0_Process)
    IntToUnicode                             0x0800281d   Thumb Code    62  hw_config.o(i.IntToUnicode)
    Leave_LowPowerMode                       0x0800285d   Thumb Code    30  hw_config.o(i.Leave_LowPowerMode)
    MG_Get                                   0x0800289d   Thumb Code    36  gpio.o(i.MG_Get)
    MG_Input                                 0x080028c1   Thumb Code    72  gpio.o(i.MG_Input)
    MG_Output                                0x08002909   Thumb Code    48  gpio.o(i.MG_Output)
    MG_PIN_F                                 0x08002939   Thumb Code   110  gpio.o(i.MG_PIN_F)
    MG_PORT_F                                0x080029a9   Thumb Code    50  gpio.o(i.MG_PORT_F)
    MG_RCC                                   0x080029f9   Thumb Code    94  gpio.o(i.MG_RCC)
    MG_Set                                   0x08002a57   Thumb Code    50  gpio.o(i.MG_Set)
    MI2C_End                                 0x08002a89   Thumb Code    70  mi2c.o(i.MI2C_End)
    MI2C_Get                                 0x08002acf   Thumb Code    14  mi2c.o(i.MI2C_Get)
    MI2C_GetAck                              0x08002add   Thumb Code    80  mi2c.o(i.MI2C_GetAck)
    MI2C_In                                  0x08002b2d   Thumb Code    16  mi2c.o(i.MI2C_In)
    MI2C_Init                                0x08002b3d   Thumb Code    54  mi2c.o(i.MI2C_Init)
    MI2C_Out                                 0x08002b73   Thumb Code    14  mi2c.o(i.MI2C_Out)
    MI2C_Read                                0x08002b81   Thumb Code   140  mi2c.o(i.MI2C_Read)
    MI2C_ReadReg                             0x08002c0d   Thumb Code   118  mi2c.o(i.MI2C_ReadReg)
    MI2C_Set                                 0x08002c83   Thumb Code    32  mi2c.o(i.MI2C_Set)
    MI2C_SetNoAck                            0x08002ca3   Thumb Code    62  mi2c.o(i.MI2C_SetNoAck)
    MI2C_Start                               0x08002ce1   Thumb Code    70  mi2c.o(i.MI2C_Start)
    MI2C_Write                               0x08002d27   Thumb Code   134  mi2c.o(i.MI2C_Write)
    NOP_Process                              0x08002dad   Thumb Code     2  usb_core.o(i.NOP_Process)
    NVIC_Init                                0x08002db1   Thumb Code   100  misc.o(i.NVIC_Init)
    NVIC_PriorityGroupConfig                 0x08002e21   Thumb Code    10  misc.o(i.NVIC_PriorityGroupConfig)
    Out0_Process                             0x08002f6d   Thumb Code    70  usb_core.o(i.Out0_Process)
    PMAToUserBufferCopy                      0x08002fbd   Thumb Code    34  usb_mem.o(i.PMAToUserBufferCopy)
    Post0_Process                            0x08002fe5   Thumb Code    54  usb_core.o(i.Post0_Process)
    PowerOn                                  0x0800302d   Thumb Code    54  usb_pwr.o(i.PowerOn)
    RCC_AHBPeriphClockCmd                    0x0800306d   Thumb Code    26  stm32f10x_rcc.o(i.RCC_AHBPeriphClockCmd)
    RCC_APB1PeriphClockCmd                   0x0800308d   Thumb Code    26  stm32f10x_rcc.o(i.RCC_APB1PeriphClockCmd)
    RCC_APB1PeriphResetCmd                   0x080030ad   Thumb Code    26  stm32f10x_rcc.o(i.RCC_APB1PeriphResetCmd)
    RCC_APB2PeriphClockCmd                   0x080030cd   Thumb Code    26  stm32f10x_rcc.o(i.RCC_APB2PeriphClockCmd)
    RCC_APB2PeriphResetCmd                   0x080030ed   Thumb Code    26  stm32f10x_rcc.o(i.RCC_APB2PeriphResetCmd)
    RCC_GetClocksFreq                        0x0800310d   Thumb Code   192  stm32f10x_rcc.o(i.RCC_GetClocksFreq)
    RCC_USBCLKConfig                         0x080031e1   Thumb Code     6  stm32f10x_rcc.o(i.RCC_USBCLKConfig)
    Resume                                   0x080031ed   Thumb Code   194  usb_pwr.o(i.Resume)
    Resume_Init                              0x080032bd   Thumb Code    30  usb_pwr.o(i.Resume_Init)
    SOF_Callback                             0x080032e1   Thumb Code    38  usb_endp.o(i.SOF_Callback)
    SetBTABLE                                0x08003311   Thumb Code    12  usb_regs.o(i.SetBTABLE)
    SetDeviceAddress                         0x08003321   Thumb Code    68  usb_core.o(i.SetDeviceAddress)
    SetEPRxAddr                              0x08003371   Thumb Code    26  usb_regs.o(i.SetEPRxAddr)
    SetEPRxCount                             0x08003395   Thumb Code    68  usb_regs.o(i.SetEPRxCount)
    SetEPRxStatus                            0x080033e1   Thumb Code    60  usb_regs.o(i.SetEPRxStatus)
    SetEPRxValid                             0x08003421   Thumb Code    48  usb_regs.o(i.SetEPRxValid)
    SetEPTxAddr                              0x08003455   Thumb Code    24  usb_regs.o(i.SetEPTxAddr)
    SetEPTxCount                             0x08003475   Thumb Code    20  usb_regs.o(i.SetEPTxCount)
    SetEPTxStatus                            0x08003491   Thumb Code    60  usb_regs.o(i.SetEPTxStatus)
    SetEPTxValid                             0x080034d1   Thumb Code    48  usb_regs.o(i.SetEPTxValid)
    SetEPType                                0x08003505   Thumb Code    32  usb_regs.o(i.SetEPType)
    Set_USBClock                             0x08003611   Thumb Code    18  hw_config.o(i.Set_USBClock)
    Setup0_Process                           0x08003625   Thumb Code   170  usb_core.o(i.Setup0_Process)
    Standard_ClearFeature                    0x080036dd   Thumb Code   342  usb_core.o(i.Standard_ClearFeature)
    Standard_GetConfiguration                0x08003849   Thumb Code    34  usb_core.o(i.Standard_GetConfiguration)
    Standard_GetDescriptorData               0x08003875   Thumb Code    32  usb_core.o(i.Standard_GetDescriptorData)
    Standard_GetInterface                    0x08003899   Thumb Code    34  usb_core.o(i.Standard_GetInterface)
    Standard_GetStatus                       0x080038c5   Thumb Code   238  usb_core.o(i.Standard_GetStatus)
    Standard_SetConfiguration                0x080039c5   Thumb Code    60  usb_core.o(i.Standard_SetConfiguration)
    Standard_SetDeviceFeature                0x08003a0d   Thumb Code    30  usb_core.o(i.Standard_SetDeviceFeature)
    Standard_SetEndPointFeature              0x08003a35   Thumb Code   192  usb_core.o(i.Standard_SetEndPointFeature)
    Standard_SetInterface                    0x08003b05   Thumb Code    96  usb_core.o(i.Standard_SetInterface)
    Suspend                                  0x08003b71   Thumb Code   142  usb_pwr.o(i.Suspend)
    SysTick_CLKSourceConfig                  0x08003c0d   Thumb Code    40  misc.o(i.SysTick_CLKSourceConfig)
    SystemInit                               0x08003c35   Thumb Code    78  system_stm32f10x.o(i.SystemInit)
    USART1_Configuration                     0x08003c95   Thumb Code   400  usart1.o(i.USART1_Configuration)
    USART1_DMASendWords                      0x08003e39   Thumb Code   134  usart1.o(i.USART1_DMASendWords)
    USART1_IRQHandler                        0x08003ec9   Thumb Code   100  usart1.o(i.USART1_IRQHandler)
    USART1_OnRecv                            0x08003f3d   Thumb Code     2  usart1.o(i.USART1_OnRecv)
    USART1_OnSend                            0x08003f3f   Thumb Code     2  usart1.o(i.USART1_OnSend)
    USART1_SendWords                         0x08003f41   Thumb Code    62  usart1.o(i.USART1_SendWords)
    USART2_IRQHandler                        0x08003f85   Thumb Code   100  usart2.o(i.USART2_IRQHandler)
    USART2_OnRecv                            0x08003ff9   Thumb Code     2  usart2.o(i.USART2_OnRecv)
    USART2_OnSend                            0x08003ffb   Thumb Code     2  usart2.o(i.USART2_OnSend)
    USART3_IRQHandler                        0x08003ffd   Thumb Code   100  usart3.o(i.USART3_IRQHandler)
    USART3_OnRecv                            0x08004071   Thumb Code     2  usart3.o(i.USART3_OnRecv)
    USART3_OnSend                            0x08004073   Thumb Code     2  usart3.o(i.USART3_OnSend)
    USART_ClearITPendingBit                  0x08004075   Thumb Code    30  stm32f10x_usart.o(i.USART_ClearITPendingBit)
    USART_Cmd                                0x08004093   Thumb Code    24  stm32f10x_usart.o(i.USART_Cmd)
    USART_Config                             0x080040ad   Thumb Code    62  hw_config.o(i.USART_Config)
    USART_DMACmd                             0x08004161   Thumb Code    18  stm32f10x_usart.o(i.USART_DMACmd)
    USART_DeInit                             0x08004175   Thumb Code   134  stm32f10x_usart.o(i.USART_DeInit)
    USART_GetFlagStatus                      0x08004211   Thumb Code    26  stm32f10x_usart.o(i.USART_GetFlagStatus)
    USART_GetITStatus                        0x0800422b   Thumb Code    84  stm32f10x_usart.o(i.USART_GetITStatus)
    USART_ITConfig                           0x0800427f   Thumb Code    74  stm32f10x_usart.o(i.USART_ITConfig)
    USART_Init                               0x080042c9   Thumb Code   210  stm32f10x_usart.o(i.USART_Init)
    USART_ReceiveData                        0x080043a1   Thumb Code    10  stm32f10x_usart.o(i.USART_ReceiveData)
    USART_SendData                           0x080043ab   Thumb Code     8  stm32f10x_usart.o(i.USART_SendData)
    USBWakeUp_IRQHandler                     0x080043b3   Thumb Code    12  hw_config.o(i.USBWakeUp_IRQHandler)
    USB_Cable_Config                         0x080043c1   Thumb Code    22  hw_config.o(i.USB_Cable_Config)
    USB_Init                                 0x08004409   Thumb Code    36  usb_init.o(i.USB_Init)
    USB_Interrupts_Config                    0x08004445   Thumb Code    84  hw_config.o(i.USB_Interrupts_Config)
    USB_Istr                                 0x08004499   Thumb Code   426  usb_istr.o(i.USB_Istr)
    USB_LP_CAN1_RX0_IRQHandler               0x08004669   Thumb Code     8  hw_config.o(i.USB_LP_CAN1_RX0_IRQHandler)
    USB_Port_Set                             0x08004671   Thumb Code    78  hw_config.o(i.USB_Port_Set)
    USB_SIL_Init                             0x080046c9   Thumb Code    28  usb_sil.o(i.USB_SIL_Init)
    USB_SIL_Read                             0x080046ed   Thumb Code    46  usb_sil.o(i.USB_SIL_Read)
    USB_To_USART_Send_Data                   0x0800471d   Thumb Code   120  hw_config.o(i.USB_To_USART_Send_Data)
    USB_USART_SendData                       0x0800479d   Thumb Code    42  hw_config.o(i.USB_USART_SendData)
    UserToPMABufferCopy                      0x080047cd   Thumb Code    52  usb_mem.o(i.UserToPMABufferCopy)
    Virtual_Com_Port_Data_Setup              0x08004805   Thumb Code    82  usb_prop.o(i.Virtual_Com_Port_Data_Setup)
    Virtual_Com_Port_GetConfigDescriptor     0x08004869   Thumb Code    14  usb_prop.o(i.Virtual_Com_Port_GetConfigDescriptor)
    Virtual_Com_Port_GetDeviceDescriptor     0x0800487d   Thumb Code    14  usb_prop.o(i.Virtual_Com_Port_GetDeviceDescriptor)
    Virtual_Com_Port_GetLineCoding           0x08004891   Thumb Code    20  usb_prop.o(i.Virtual_Com_Port_GetLineCoding)
    Virtual_Com_Port_GetStringDescriptor     0x080048ad   Thumb Code    32  usb_prop.o(i.Virtual_Com_Port_GetStringDescriptor)
    Virtual_Com_Port_Get_Interface_Setting   0x080048d5   Thumb Code    22  usb_prop.o(i.Virtual_Com_Port_Get_Interface_Setting)
    Virtual_Com_Port_NoData_Setup            0x080048ed   Thumb Code    36  usb_prop.o(i.Virtual_Com_Port_NoData_Setup)
    Virtual_Com_Port_Reset                   0x08004915   Thumb Code   216  usb_prop.o(i.Virtual_Com_Port_Reset)
    Virtual_Com_Port_SetConfiguration        0x080049fd   Thumb Code    14  usb_prop.o(i.Virtual_Com_Port_SetConfiguration)
    Virtual_Com_Port_SetDeviceAddress        0x08004a15   Thumb Code     8  usb_prop.o(i.Virtual_Com_Port_SetDeviceAddress)
    Virtual_Com_Port_SetLineCoding           0x08004a21   Thumb Code    20  usb_prop.o(i.Virtual_Com_Port_SetLineCoding)
    Virtual_Com_Port_Status_In               0x08004a3d   Thumb Code    22  usb_prop.o(i.Virtual_Com_Port_Status_In)
    Virtual_Com_Port_Status_Out              0x08004a59   Thumb Code     2  usb_prop.o(i.Virtual_Com_Port_Status_Out)
    Virtual_Com_Port_init                    0x08004a5d   Thumb Code    30  usb_prop.o(i.Virtual_Com_Port_init)
    __ARM_fpclassify                         0x08004a85   Thumb Code    40  fpclassify.o(i.__ARM_fpclassify)
    _is_digit                                0x08004aad   Thumb Code    14  __printf_wp.o(i._is_digit)
    _sys_exit                                0x08004abb   Thumb Code     4  bstring.o(i._sys_exit)
    atoi                                     0x08004abf   Thumb Code    96  bstring.o(i.atoi)
    delay_init                               0x08004b21   Thumb Code    40  delay.o(i.delay_init)
    delay_ms                                 0x08004b59   Thumb Code   110  delay.o(i.delay_ms)
    delayus                                  0x08004bcd   Thumb Code    26  delay.o(i.delayus)
    finish                                   0x08004be7   Thumb Code     2  main.o(i.finish)
    fputc                                    0x08004be9   Thumb Code    24  bstring.o(i.fputc)
    get                                      0x08004c05   Thumb Code     2  main.o(i.get)
    itoa                                     0x08004c07   Thumb Code    98  bstring.o(i.itoa)
    main                                     0x08004c69   Thumb Code   254  main.o(i.main)
    usb_printf                               0x08004dbd   Thumb Code    56  hw_config.o(i.usb_printf)
    _get_lc_numeric                          0x08004df9   Thumb Code    44  lc_numeric_c.o(locale$$code)
    _get_lc_ctype                            0x08004e25   Thumb Code    44  lc_ctype_c.o(locale$$code)
    _printf_fp_dec                           0x08004e51   Thumb Code     4  printf1.o(x$fpl$printf1)
    _printf_fp_hex                           0x08004e55   Thumb Code     4  printf2.o(x$fpl$printf2)
    Virtual_Com_Port_DeviceDescriptor        0x08004e58   Data          18  usb_desc.o(.constdata)
    __I$use$fp                               0x08004e58   Number         0  usenofp.o(x$fpl$usenofp)
    Virtual_Com_Port_ConfigDescriptor        0x08004e6a   Data          67  usb_desc.o(.constdata)
    Virtual_Com_Port_StringLangID            0x08004ead   Data           4  usb_desc.o(.constdata)
    Virtual_Com_Port_StringVendor            0x08004eb1   Data          38  usb_desc.o(.constdata)
    Virtual_Com_Port_StringProduct           0x08004ed7   Data          50  usb_desc.o(.constdata)
    Region$$Table$$Base                      0x08005008   Number         0  anon$$obj.o(Region$$Table)
    Region$$Table$$Limit                     0x08005028   Number         0  anon$$obj.o(Region$$Table)
    __ctype                                  0x08005051   Data           0  lc_ctype_c.o(locale$$data)
    key                                      0x20000000   Data           4  main.o(.data)
    mpu6050                                  0x20000004   Data           8  main.o(.data)
    __stdout                                 0x20000014   Data           4  bstring.o(.data)
    USART1_OnRecvHandler                     0x20000018   Data           4  usart1.o(.data)
    USART1_OnSendHandler                     0x2000001c   Data           4  usart1.o(.data)
    USART2_OnRecvHandler                     0x20000020   Data           4  usart2.o(.data)
    USART2_OnSendHandler                     0x20000024   Data           4  usart2.o(.data)
    USART3_OnRecvHandler                     0x20000028   Data           4  usart3.o(.data)
    USART3_OnSendHandler                     0x2000002c   Data           4  usart3.o(.data)
    USB_USART_RX_STA                         0x20000030   Data           2  hw_config.o(.data)
    Virtual_Com_Port_StringSerial            0x20000032   Data          26  usb_desc.o(.data)
    wIstr                                    0x20000050   Data           2  usb_istr.o(.data)
    bIntPackSOF                              0x20000052   Data           1  usb_istr.o(.data)
    esof_counter                             0x20000054   Data           4  usb_istr.o(.data)
    wCNTR                                    0x20000058   Data           4  usb_istr.o(.data)
    pEpInt_IN                                0x2000005c   Data          28  usb_istr.o(.data)
    pEpInt_OUT                               0x20000078   Data          28  usb_istr.o(.data)
    Request                                  0x20000094   Data           1  usb_prop.o(.data)
    linecoding                               0x20000098   Data           8  usb_prop.o(.data)
    Device_Table                             0x200000a0   Data           2  usb_prop.o(.data)
    Device_Property                          0x200000a4   Data          48  usb_prop.o(.data)
    User_Standard_Requests                   0x200000d4   Data          36  usb_prop.o(.data)
    Device_Descriptor                        0x200000f8   Data           8  usb_prop.o(.data)
    Config_Descriptor                        0x20000100   Data           8  usb_prop.o(.data)
    String_Descriptor                        0x20000108   Data          32  usb_prop.o(.data)
    bDeviceState                             0x20000128   Data           4  usb_pwr.o(.data)
    fSuspendEnabled                          0x2000012c   Data           1  usb_pwr.o(.data)
    ResumeS                                  0x2000012d   Data           2  usb_pwr.o(.data)
    remotewakeupon                           0x20000130   Data           4  usb_pwr.o(.data)
    StatusInfo                               0x20000134   Data           2  usb_core.o(.data)
    Data_Mul_MaxPacketSize                   0x20000136   Data           1  usb_core.o(.data)
    EPindex                                  0x20000138   Data           1  usb_init.o(.data)
    pInformation                             0x2000013c   Data           4  usb_init.o(.data)
    pProperty                                0x20000140   Data           4  usb_init.o(.data)
    SaveState                                0x20000144   Data           2  usb_init.o(.data)
    wInterrupt_Mask                          0x20000146   Data           2  usb_init.o(.data)
    pUser_Standard_Requests                  0x20000148   Data           4  usb_init.o(.data)
    SaveRState                               0x2000014c   Data           2  usb_int.o(.data)
    SaveTState                               0x2000014e   Data           2  usb_int.o(.data)
    SystemCoreClock                          0x20000150   Data           4  system_stm32f10x.o(.data)
    AHBPrescTable                            0x20000154   Data          16  system_stm32f10x.o(.data)
    usart1_rx_buffer                         0x20000178   Data         256  usart1.o(.bss)
    usart1_tx_buffer                         0x20000278   Data         256  usart1.o(.bss)
    usart2_rx_buffer                         0x20000378   Data         256  usart2.o(.bss)
    usart2_tx_buffer                         0x20000478   Data         256  usart2.o(.bss)
    usart3_rx_buffer                         0x20000578   Data         256  usart3.o(.bss)
    usart3_tx_buffer                         0x20000678   Data         256  usart3.o(.bss)
    uu_txfifo                                0x20000778   Data        1028  hw_config.o(.bss)
    USART_PRINTF_Buffer                      0x20000b7c   Data         200  hw_config.o(.bss)
    USB_USART_RX_BUF                         0x20000c44   Data         200  hw_config.o(.bss)
    USB_Rx_Buffer                            0x20000d0c   Data          64  usb_endp.o(.bss)
    EP                                       0x20000d4c   Data          32  usb_pwr.o(.bss)
    Device_Info                              0x20000d6c   Data          28  usb_init.o(.bss)
    __libspace_start                         0x20000d88   Data          96  libspace.o(.bss)
    __temporary_stack_top$libspace           0x20000de8   Data           0  libspace.o(.bss)



==============================================================================

Memory Map of the image

  Image Entry point : 0x080000ed

  Load Region LR_IROM1 (Base: 0x08000000, Size: 0x000052cc, Max: 0x00010000, ABSOLUTE, COMPRESSED[0x00005200])

    Execution Region ER_IROM1 (Base: 0x08000000, Size: 0x00005154, Max: 0x00010000, ABSOLUTE)

    Base Addr    Size         Type   Attr      Idx    E Section Name        Object

    0x08000000   0x000000ec   Data   RO         2544    RESET               startup_stm32f10x_md.o
    0x080000ec   0x00000008   Code   RO         4643  * !!!main             c_w.l(__main.o)
    0x080000f4   0x00000034   Code   RO         4944    !!!scatter          c_w.l(__scatter.o)
    0x08000128   0x0000005a   Code   RO         4942    !!dczerorl2         c_w.l(__dczerorl2.o)
    0x08000182   0x00000002   PAD
    0x08000184   0x0000001c   Code   RO         4946    !!handler_zi        c_w.l(__scatter_zi.o)
    0x080001a0   0x00000000   Code   RO         4638    .ARM.Collect$$_printf_percent$$00000000  c_w.l(_printf_percent.o)
    0x080001a0   0x00000006   Code   RO         4698    .ARM.Collect$$_printf_percent$$00000001  c_w.l(_printf_n.o)
    0x080001a6   0x00000006   Code   RO         4700    .ARM.Collect$$_printf_percent$$00000002  c_w.l(_printf_p.o)
    0x080001ac   0x00000006   Code   RO         4704    .ARM.Collect$$_printf_percent$$00000003  c_w.l(_printf_f.o)
    0x080001b2   0x00000006   Code   RO         4705    .ARM.Collect$$_printf_percent$$00000004  c_w.l(_printf_e.o)
    0x080001b8   0x00000006   Code   RO         4706    .ARM.Collect$$_printf_percent$$00000005  c_w.l(_printf_g.o)
    0x080001be   0x00000006   Code   RO         4707    .ARM.Collect$$_printf_percent$$00000006  c_w.l(_printf_a.o)
    0x080001c4   0x0000000a   Code   RO         4712    .ARM.Collect$$_printf_percent$$00000007  c_w.l(_printf_ll.o)
    0x080001ce   0x00000006   Code   RO         4702    .ARM.Collect$$_printf_percent$$00000008  c_w.l(_printf_i.o)
    0x080001d4   0x00000006   Code   RO         4637    .ARM.Collect$$_printf_percent$$00000009  c_w.l(_printf_d.o)
    0x080001da   0x00000006   Code   RO         4703    .ARM.Collect$$_printf_percent$$0000000A  c_w.l(_printf_u.o)
    0x080001e0   0x00000006   Code   RO         4701    .ARM.Collect$$_printf_percent$$0000000B  c_w.l(_printf_o.o)
    0x080001e6   0x00000006   Code   RO         4699    .ARM.Collect$$_printf_percent$$0000000C  c_w.l(_printf_x.o)
    0x080001ec   0x00000006   Code   RO         4709    .ARM.Collect$$_printf_percent$$0000000D  c_w.l(_printf_lli.o)
    0x080001f2   0x00000006   Code   RO         4710    .ARM.Collect$$_printf_percent$$0000000E  c_w.l(_printf_lld.o)
    0x080001f8   0x00000006   Code   RO         4711    .ARM.Collect$$_printf_percent$$0000000F  c_w.l(_printf_llu.o)
    0x080001fe   0x00000006   Code   RO         4716    .ARM.Collect$$_printf_percent$$00000010  c_w.l(_printf_llo.o)
    0x08000204   0x00000006   Code   RO         4717    .ARM.Collect$$_printf_percent$$00000011  c_w.l(_printf_llx.o)
    0x0800020a   0x0000000a   Code   RO         4713    .ARM.Collect$$_printf_percent$$00000012  c_w.l(_printf_l.o)
    0x08000214   0x00000006   Code   RO         4696    .ARM.Collect$$_printf_percent$$00000013  c_w.l(_printf_c.o)
    0x0800021a   0x00000006   Code   RO         4697    .ARM.Collect$$_printf_percent$$00000014  c_w.l(_printf_s.o)
    0x08000220   0x00000006   Code   RO         4714    .ARM.Collect$$_printf_percent$$00000015  c_w.l(_printf_lc.o)
    0x08000226   0x00000006   Code   RO         4715    .ARM.Collect$$_printf_percent$$00000016  c_w.l(_printf_ls.o)
    0x0800022c   0x00000004   Code   RO         4708    .ARM.Collect$$_printf_percent$$00000017  c_w.l(_printf_percent_end.o)
    0x08000230   0x00000002   Code   RO         4806    .ARM.Collect$$libinit$$00000000  c_w.l(libinit.o)
    0x08000232   0x00000000   Code   RO         4823    .ARM.Collect$$libinit$$00000002  c_w.l(libinit2.o)
    0x08000232   0x00000000   Code   RO         4825    .ARM.Collect$$libinit$$00000004  c_w.l(libinit2.o)
    0x08000232   0x00000000   Code   RO         4828    .ARM.Collect$$libinit$$0000000A  c_w.l(libinit2.o)
    0x08000232   0x00000000   Code   RO         4830    .ARM.Collect$$libinit$$0000000C  c_w.l(libinit2.o)
    0x08000232   0x00000000   Code   RO         4832    .ARM.Collect$$libinit$$0000000E  c_w.l(libinit2.o)
    0x08000232   0x00000006   Code   RO         4833    .ARM.Collect$$libinit$$0000000F  c_w.l(libinit2.o)
    0x08000238   0x00000000   Code   RO         4835    .ARM.Collect$$libinit$$00000011  c_w.l(libinit2.o)
    0x08000238   0x0000000c   Code   RO         4836    .ARM.Collect$$libinit$$00000012  c_w.l(libinit2.o)
    0x08000244   0x00000000   Code   RO         4837    .ARM.Collect$$libinit$$00000013  c_w.l(libinit2.o)
    0x08000244   0x00000000   Code   RO         4839    .ARM.Collect$$libinit$$00000015  c_w.l(libinit2.o)
    0x08000244   0x0000000a   Code   RO         4840    .ARM.Collect$$libinit$$00000016  c_w.l(libinit2.o)
    0x0800024e   0x00000000   Code   RO         4841    .ARM.Collect$$libinit$$00000017  c_w.l(libinit2.o)
    0x0800024e   0x00000000   Code   RO         4843    .ARM.Collect$$libinit$$00000019  c_w.l(libinit2.o)
    0x0800024e   0x00000000   Code   RO         4845    .ARM.Collect$$libinit$$0000001B  c_w.l(libinit2.o)
    0x0800024e   0x00000000   Code   RO         4847    .ARM.Collect$$libinit$$0000001D  c_w.l(libinit2.o)
    0x0800024e   0x00000000   Code   RO         4849    .ARM.Collect$$libinit$$0000001F  c_w.l(libinit2.o)
    0x0800024e   0x00000000   Code   RO         4851    .ARM.Collect$$libinit$$00000021  c_w.l(libinit2.o)
    0x0800024e   0x00000000   Code   RO         4853    .ARM.Collect$$libinit$$00000023  c_w.l(libinit2.o)
    0x0800024e   0x00000000   Code   RO         4855    .ARM.Collect$$libinit$$00000025  c_w.l(libinit2.o)
    0x0800024e   0x00000000   Code   RO         4859    .ARM.Collect$$libinit$$0000002C  c_w.l(libinit2.o)
    0x0800024e   0x00000000   Code   RO         4861    .ARM.Collect$$libinit$$0000002E  c_w.l(libinit2.o)
    0x0800024e   0x00000000   Code   RO         4863    .ARM.Collect$$libinit$$00000030  c_w.l(libinit2.o)
    0x0800024e   0x00000000   Code   RO         4865    .ARM.Collect$$libinit$$00000032  c_w.l(libinit2.o)
    0x0800024e   0x00000002   Code   RO         4866    .ARM.Collect$$libinit$$00000033  c_w.l(libinit2.o)
    0x08000250   0x00000002   Code   RO         4884    .ARM.Collect$$libshutdown$$00000000  c_w.l(libshutdown.o)
    0x08000252   0x00000000   Code   RO         4894    .ARM.Collect$$libshutdown$$00000002  c_w.l(libshutdown2.o)
    0x08000252   0x00000000   Code   RO         4896    .ARM.Collect$$libshutdown$$00000004  c_w.l(libshutdown2.o)
    0x08000252   0x00000000   Code   RO         4899    .ARM.Collect$$libshutdown$$00000007  c_w.l(libshutdown2.o)
    0x08000252   0x00000000   Code   RO         4902    .ARM.Collect$$libshutdown$$0000000A  c_w.l(libshutdown2.o)
    0x08000252   0x00000000   Code   RO         4904    .ARM.Collect$$libshutdown$$0000000C  c_w.l(libshutdown2.o)
    0x08000252   0x00000000   Code   RO         4907    .ARM.Collect$$libshutdown$$0000000F  c_w.l(libshutdown2.o)
    0x08000252   0x00000002   Code   RO         4908    .ARM.Collect$$libshutdown$$00000010  c_w.l(libshutdown2.o)
    0x08000254   0x00000000   Code   RO         4647    .ARM.Collect$$rtentry$$00000000  c_w.l(__rtentry.o)
    0x08000254   0x00000000   Code   RO         4727    .ARM.Collect$$rtentry$$00000002  c_w.l(__rtentry2.o)
    0x08000254   0x00000006   Code   RO         4739    .ARM.Collect$$rtentry$$00000004  c_w.l(__rtentry4.o)
    0x0800025a   0x00000000   Code   RO         4729    .ARM.Collect$$rtentry$$00000009  c_w.l(__rtentry2.o)
    0x0800025a   0x00000004   Code   RO         4730    .ARM.Collect$$rtentry$$0000000A  c_w.l(__rtentry2.o)
    0x0800025e   0x00000000   Code   RO         4732    .ARM.Collect$$rtentry$$0000000C  c_w.l(__rtentry2.o)
    0x0800025e   0x00000008   Code   RO         4733    .ARM.Collect$$rtentry$$0000000D  c_w.l(__rtentry2.o)
    0x08000266   0x00000002   Code   RO         4815    .ARM.Collect$$rtexit$$00000000  c_w.l(rtexit.o)
    0x08000268   0x00000000   Code   RO         4868    .ARM.Collect$$rtexit$$00000002  c_w.l(rtexit2.o)
    0x08000268   0x00000004   Code   RO         4869    .ARM.Collect$$rtexit$$00000003  c_w.l(rtexit2.o)
    0x0800026c   0x00000006   Code   RO         4870    .ARM.Collect$$rtexit$$00000004  c_w.l(rtexit2.o)
    0x08000272   0x00000002   PAD
    0x08000274   0x00000040   Code   RO         2545    .text               startup_stm32f10x_md.o
    0x080002b4   0x00000002   Code   RO         4605    .text               c_w.l(use_no_semi_2.o)
    0x080002b6   0x00000002   PAD
    0x080002b8   0x00000024   Code   RO         4607    .text               c_w.l(vsprintf.o)
    0x080002dc   0x00000018   Code   RO         4609    .text               c_w.l(__2printf.o)
    0x080002f4   0x00000078   Code   RO         4615    .text               c_w.l(_printf_dec.o)
    0x0800036c   0x00000188   Code   RO         4634    .text               c_w.l(__printf_flags_ss_wp.o)
    0x080004f4   0x0000003e   Code   RO         4639    .text               c_w.l(strlen.o)
    0x08000532   0x00000006   Code   RO         4641    .text               c_w.l(heapauxi.o)
    0x08000538   0x00000002   Code   RO         4645    .text               c_w.l(use_no_semi.o)
    0x0800053a   0x0000004e   Code   RO         4648    .text               c_w.l(_printf_pad.o)
    0x08000588   0x00000024   Code   RO         4650    .text               c_w.l(_printf_truncate.o)
    0x080005ac   0x00000052   Code   RO         4652    .text               c_w.l(_printf_str.o)
    0x080005fe   0x000000b2   Code   RO         4654    .text               c_w.l(_printf_intcommon.o)
    0x080006b0   0x00000028   Code   RO         4656    .text               c_w.l(_printf_charcount.o)
    0x080006d8   0x00000030   Code   RO         4658    .text               c_w.l(_printf_char_common.o)
    0x08000708   0x0000000a   Code   RO         4660    .text               c_w.l(_sputc.o)
    0x08000712   0x00000002   PAD
    0x08000714   0x00000024   Code   RO         4662    .text               c_w.l(_printf_char_file.o)
    0x08000738   0x000000bc   Code   RO         4664    .text               c_w.l(_printf_wctomb.o)
    0x080007f4   0x0000007c   Code   RO         4667    .text               c_w.l(_printf_longlong_dec.o)
    0x08000870   0x00000070   Code   RO         4673    .text               c_w.l(_printf_oct_int_ll.o)
    0x080008e0   0x00000094   Code   RO         4693    .text               c_w.l(_printf_hex_int_ll_ptr.o)
    0x08000974   0x0000008a   Code   RO         4741    .text               c_w.l(lludiv10.o)
    0x080009fe   0x0000041a   Code   RO         4743    .text               c_w.l(_printf_fp_dec.o)
    0x08000e18   0x000002fc   Code   RO         4745    .text               c_w.l(_printf_fp_hex.o)
    0x08001114   0x0000002c   Code   RO         4750    .text               c_w.l(_printf_char.o)
    0x08001140   0x0000002c   Code   RO         4752    .text               c_w.l(_printf_wchar.o)
    0x0800116c   0x00000008   Code   RO         4754    .text               c_w.l(ferror.o)
    0x08001174   0x00000040   Code   RO         4758    .text               c_w.l(_wcrtomb.o)
    0x080011b4   0x0000004a   Code   RO         4760    .text               c_w.l(sys_stackheap_outer.o)
    0x080011fe   0x00000002   PAD
    0x08001200   0x00000010   Code   RO         4762    .text               c_w.l(rt_ctype_table.o)
    0x08001210   0x00000008   Code   RO         4767    .text               c_w.l(rt_locale_intlibspace.o)
    0x08001218   0x00000080   Code   RO         4769    .text               c_w.l(_printf_fp_infnan.o)
    0x08001298   0x000000dc   Code   RO         4771    .text               c_w.l(bigflt0.o)
    0x08001374   0x00000012   Code   RO         4799    .text               c_w.l(exit.o)
    0x08001386   0x00000002   PAD
    0x08001388   0x00000008   Code   RO         4812    .text               c_w.l(libspace.o)
    0x08001390   0x00000080   Code   RO         4820    .text               c_w.l(strcmpv7m.o)
    0x08001410   0x0000003e   Code   RO         4774    CL$$btod_d2e        c_w.l(btod.o)
    0x0800144e   0x00000046   Code   RO         4776    CL$$btod_d2e_denorm_low  c_w.l(btod.o)
    0x08001494   0x00000060   Code   RO         4775    CL$$btod_d2e_norm_op1  c_w.l(btod.o)
    0x080014f4   0x00000338   Code   RO         4784    CL$$btod_div_common  c_w.l(btod.o)
    0x0800182c   0x000000c6   Code   RO         4781    CL$$btod_e2e        c_w.l(btod.o)
    0x080018f2   0x00000028   Code   RO         4778    CL$$btod_ediv       c_w.l(btod.o)
    0x0800191a   0x00000028   Code   RO         4777    CL$$btod_emul       c_w.l(btod.o)
    0x08001942   0x00000244   Code   RO         4783    CL$$btod_mult_common  c_w.l(btod.o)
    0x08001b86   0x0000000c   Code   RO         2137    i.ByteSwap          usb_regs.o
    0x08001b92   0x00000002   PAD
    0x08001b94   0x00000288   Code   RO         2066    i.CTR_LP            usb_int.o
    0x08001e1c   0x00000034   Code   RO         2138    i.ClearDTOG_RX      usb_regs.o
    0x08001e50   0x00000034   Code   RO         2139    i.ClearDTOG_TX      usb_regs.o
    0x08001e84   0x00000028   Code   RO         2144    i.Clear_Status_Out  usb_regs.o
    0x08001eac   0x00000030   Code   RO          769    i.DMA1_Channel2_IRQHandler  usart3.o
    0x08001edc   0x00000038   Code   RO          621    i.DMA1_Channel4_IRQHandler  usart1.o
    0x08001f14   0x00000038   Code   RO          695    i.DMA1_Channel7_IRQHandler  usart2.o
    0x08001f4c   0x0000001c   Code   RO         2970    i.DMA_ClearFlag     stm32f10x_dma.o
    0x08001f68   0x0000001c   Code   RO         2971    i.DMA_ClearITPendingBit  stm32f10x_dma.o
    0x08001f84   0x00000018   Code   RO         2972    i.DMA_Cmd           stm32f10x_dma.o
    0x08001f9c   0x00000008   Code   RO         2974    i.DMA_GetCurrDataCounter  stm32f10x_dma.o
    0x08001fa4   0x0000002c   Code   RO         2975    i.DMA_GetFlagStatus  stm32f10x_dma.o
    0x08001fd0   0x0000002c   Code   RO         2976    i.DMA_GetITStatus   stm32f10x_dma.o
    0x08001ffc   0x00000012   Code   RO         2977    i.DMA_ITConfig      stm32f10x_dma.o
    0x0800200e   0x0000003c   Code   RO         2978    i.DMA_Init          stm32f10x_dma.o
    0x0800204a   0x00000004   Code   RO         2979    i.DMA_SetCurrDataCounter  stm32f10x_dma.o
    0x0800204e   0x00000002   PAD
    0x08002050   0x000000c0   Code   RO         1899    i.DataStageIn       usb_core.o
    0x08002110   0x000000bc   Code   RO         1900    i.DataStageOut      usb_core.o
    0x080021cc   0x00000298   Code   RO         1901    i.Data_Setup0       usb_core.o
    0x08002464   0x00000090   Code   RO         1661    i.EP1_IN_Callback   usb_endp.o
    0x080024f4   0x00000020   Code   RO         1662    i.EP3_OUT_Callback  usb_endp.o
    0x08002514   0x0000000c   Code   RO         4541    i.EXTI_ClearITPendingBit  stm32f10x_exti.o
    0x08002520   0x00000094   Code   RO         4546    i.EXTI_Init         stm32f10x_exti.o
    0x080025b4   0x00000030   Code   RO         1506    i.Enter_LowPowerMode  hw_config.o
    0x080025e4   0x00000116   Code   RO         3246    i.GPIO_Init         stm32f10x_gpio.o
    0x080026fa   0x00000012   Code   RO         3250    i.GPIO_ReadInputDataBit  stm32f10x_gpio.o
    0x0800270c   0x00000004   Code   RO         3253    i.GPIO_ResetBits    stm32f10x_gpio.o
    0x08002710   0x00000004   Code   RO         3254    i.GPIO_SetBits      stm32f10x_gpio.o
    0x08002714   0x00000020   Code   RO         2156    i.GetEPRxAddr       usb_regs.o
    0x08002734   0x00000024   Code   RO         2157    i.GetEPRxCount      usb_regs.o
    0x08002758   0x00000020   Code   RO         2159    i.GetEPTxAddr       usb_regs.o
    0x08002778   0x00000034   Code   RO         1507    i.Get_SerialNum     hw_config.o
    0x080027ac   0x00000070   Code   RO         1902    i.In0_Process       usb_core.o
    0x0800281c   0x0000003e   Code   RO         1508    i.IntToUnicode      hw_config.o
    0x0800285a   0x00000002   PAD
    0x0800285c   0x00000040   Code   RO         1509    i.Leave_LowPowerMode  hw_config.o
    0x0800289c   0x00000024   Code   RO          393    i.MG_Get            gpio.o
    0x080028c0   0x00000048   Code   RO          394    i.MG_Input          gpio.o
    0x08002908   0x00000030   Code   RO          395    i.MG_Output         gpio.o
    0x08002938   0x0000006e   Code   RO          396    i.MG_PIN_F          gpio.o
    0x080029a6   0x00000002   PAD
    0x080029a8   0x00000050   Code   RO          397    i.MG_PORT_F         gpio.o
    0x080029f8   0x0000005e   Code   RO          398    i.MG_RCC            gpio.o
    0x08002a56   0x00000032   Code   RO          399    i.MG_Set            gpio.o
    0x08002a88   0x00000046   Code   RO          459    i.MI2C_End          mi2c.o
    0x08002ace   0x0000000e   Code   RO          460    i.MI2C_Get          mi2c.o
    0x08002adc   0x00000050   Code   RO          461    i.MI2C_GetAck       mi2c.o
    0x08002b2c   0x00000010   Code   RO          462    i.MI2C_In           mi2c.o
    0x08002b3c   0x00000036   Code   RO          463    i.MI2C_Init         mi2c.o
    0x08002b72   0x0000000e   Code   RO          465    i.MI2C_Out          mi2c.o
    0x08002b80   0x0000008c   Code   RO          466    i.MI2C_Read         mi2c.o
    0x08002c0c   0x00000076   Code   RO          468    i.MI2C_ReadReg      mi2c.o
    0x08002c82   0x00000020   Code   RO          469    i.MI2C_Set          mi2c.o
    0x08002ca2   0x0000003e   Code   RO          471    i.MI2C_SetNoAck     mi2c.o
    0x08002ce0   0x00000046   Code   RO          472    i.MI2C_Start        mi2c.o
    0x08002d26   0x00000086   Code   RO          473    i.MI2C_Write        mi2c.o
    0x08002dac   0x00000002   Code   RO         1903    i.NOP_Process       usb_core.o
    0x08002dae   0x00000002   PAD
    0x08002db0   0x00000070   Code   RO         2598    i.NVIC_Init         misc.o
    0x08002e20   0x00000014   Code   RO         2599    i.NVIC_PriorityGroupConfig  misc.o
    0x08002e34   0x00000138   Code   RO         1904    i.NoData_Setup0     usb_core.o
    0x08002f6c   0x00000050   Code   RO         1905    i.Out0_Process      usb_core.o
    0x08002fbc   0x00000028   Code   RO         2107    i.PMAToUserBufferCopy  usb_mem.o
    0x08002fe4   0x00000048   Code   RO         1906    i.Post0_Process     usb_core.o
    0x0800302c   0x00000040   Code   RO         1845    i.PowerOn           usb_pwr.o
    0x0800306c   0x00000020   Code   RO         3421    i.RCC_AHBPeriphClockCmd  stm32f10x_rcc.o
    0x0800308c   0x00000020   Code   RO         3422    i.RCC_APB1PeriphClockCmd  stm32f10x_rcc.o
    0x080030ac   0x00000020   Code   RO         3423    i.RCC_APB1PeriphResetCmd  stm32f10x_rcc.o
    0x080030cc   0x00000020   Code   RO         3424    i.RCC_APB2PeriphClockCmd  stm32f10x_rcc.o
    0x080030ec   0x00000020   Code   RO         3425    i.RCC_APB2PeriphResetCmd  stm32f10x_rcc.o
    0x0800310c   0x000000d4   Code   RO         3432    i.RCC_GetClocksFreq  stm32f10x_rcc.o
    0x080031e0   0x0000000c   Code   RO         3450    i.RCC_USBCLKConfig  stm32f10x_rcc.o
    0x080031ec   0x000000d0   Code   RO         1846    i.Resume            usb_pwr.o
    0x080032bc   0x00000024   Code   RO         1847    i.Resume_Init       usb_pwr.o
    0x080032e0   0x00000030   Code   RO         1663    i.SOF_Callback      usb_endp.o
    0x08003310   0x00000010   Code   RO         2167    i.SetBTABLE         usb_regs.o
    0x08003320   0x00000050   Code   RO         1907    i.SetDeviceAddress  usb_core.o
    0x08003370   0x00000024   Code   RO         2181    i.SetEPRxAddr       usb_regs.o
    0x08003394   0x0000004c   Code   RO         2182    i.SetEPRxCount      usb_regs.o
    0x080033e0   0x00000040   Code   RO         2183    i.SetEPRxStatus     usb_regs.o
    0x08003420   0x00000034   Code   RO         2184    i.SetEPRxValid      usb_regs.o
    0x08003454   0x00000020   Code   RO         2185    i.SetEPTxAddr       usb_regs.o
    0x08003474   0x0000001c   Code   RO         2186    i.SetEPTxCount      usb_regs.o
    0x08003490   0x00000040   Code   RO         2187    i.SetEPTxStatus     usb_regs.o
    0x080034d0   0x00000034   Code   RO         2188    i.SetEPTxValid      usb_regs.o
    0x08003504   0x00000024   Code   RO         2189    i.SetEPType         usb_regs.o
    0x08003528   0x00000008   Code   RO         2552    i.SetSysClock       system_stm32f10x.o
    0x08003530   0x000000e0   Code   RO         2553    i.SetSysClockTo72   system_stm32f10x.o
    0x08003610   0x00000012   Code   RO         1510    i.Set_USBClock      hw_config.o
    0x08003622   0x00000002   PAD
    0x08003624   0x000000b8   Code   RO         1908    i.Setup0_Process    usb_core.o
    0x080036dc   0x0000016c   Code   RO         1909    i.Standard_ClearFeature  usb_core.o
    0x08003848   0x0000002c   Code   RO         1910    i.Standard_GetConfiguration  usb_core.o
    0x08003874   0x00000024   Code   RO         1911    i.Standard_GetDescriptorData  usb_core.o
    0x08003898   0x0000002c   Code   RO         1912    i.Standard_GetInterface  usb_core.o
    0x080038c4   0x00000100   Code   RO         1913    i.Standard_GetStatus  usb_core.o
    0x080039c4   0x00000048   Code   RO         1914    i.Standard_SetConfiguration  usb_core.o
    0x08003a0c   0x00000028   Code   RO         1915    i.Standard_SetDeviceFeature  usb_core.o
    0x08003a34   0x000000d0   Code   RO         1916    i.Standard_SetEndPointFeature  usb_core.o
    0x08003b04   0x0000006c   Code   RO         1917    i.Standard_SetInterface  usb_core.o
    0x08003b70   0x0000009c   Code   RO         1848    i.Suspend           usb_pwr.o
    0x08003c0c   0x00000028   Code   RO         2602    i.SysTick_CLKSourceConfig  misc.o
    0x08003c34   0x00000060   Code   RO         2555    i.SystemInit        system_stm32f10x.o
    0x08003c94   0x000001a4   Code   RO          622    i.USART1_Configuration  usart1.o
    0x08003e38   0x00000090   Code   RO          623    i.USART1_DMASendWords  usart1.o
    0x08003ec8   0x00000074   Code   RO          624    i.USART1_IRQHandler  usart1.o
    0x08003f3c   0x00000002   Code   RO          625    i.USART1_OnRecv     usart1.o
    0x08003f3e   0x00000002   Code   RO          626    i.USART1_OnSend     usart1.o
    0x08003f40   0x00000044   Code   RO          628    i.USART1_SendWords  usart1.o
    0x08003f84   0x00000074   Code   RO          698    i.USART2_IRQHandler  usart2.o
    0x08003ff8   0x00000002   Code   RO          699    i.USART2_OnRecv     usart2.o
    0x08003ffa   0x00000002   Code   RO          700    i.USART2_OnSend     usart2.o
    0x08003ffc   0x00000074   Code   RO          772    i.USART3_IRQHandler  usart3.o
    0x08004070   0x00000002   Code   RO          773    i.USART3_OnRecv     usart3.o
    0x08004072   0x00000002   Code   RO          774    i.USART3_OnSend     usart3.o
    0x08004074   0x0000001e   Code   RO         4349    i.USART_ClearITPendingBit  stm32f10x_usart.o
    0x08004092   0x00000018   Code   RO         4352    i.USART_Cmd         stm32f10x_usart.o
    0x080040aa   0x00000002   PAD
    0x080040ac   0x000000b4   Code   RO         1511    i.USART_Config      hw_config.o
    0x08004160   0x00000012   Code   RO         4353    i.USART_DMACmd      stm32f10x_usart.o
    0x08004172   0x00000002   PAD
    0x08004174   0x0000009c   Code   RO         4354    i.USART_DeInit      stm32f10x_usart.o
    0x08004210   0x0000001a   Code   RO         4355    i.USART_GetFlagStatus  stm32f10x_usart.o
    0x0800422a   0x00000054   Code   RO         4356    i.USART_GetITStatus  stm32f10x_usart.o
    0x0800427e   0x0000004a   Code   RO         4358    i.USART_ITConfig    stm32f10x_usart.o
    0x080042c8   0x000000d8   Code   RO         4359    i.USART_Init        stm32f10x_usart.o
    0x080043a0   0x0000000a   Code   RO         4366    i.USART_ReceiveData  stm32f10x_usart.o
    0x080043aa   0x00000008   Code   RO         4369    i.USART_SendData    stm32f10x_usart.o
    0x080043b2   0x0000000c   Code   RO         1512    i.USBWakeUp_IRQHandler  hw_config.o
    0x080043be   0x00000002   PAD
    0x080043c0   0x00000048   Code   RO         1513    i.USB_Cable_Config  hw_config.o
    0x08004408   0x0000003c   Code   RO         2030    i.USB_Init          usb_init.o
    0x08004444   0x00000054   Code   RO         1514    i.USB_Interrupts_Config  hw_config.o
    0x08004498   0x000001d0   Code   RO         1701    i.USB_Istr          usb_istr.o
    0x08004668   0x00000008   Code   RO         1515    i.USB_LP_CAN1_RX0_IRQHandler  hw_config.o
    0x08004670   0x00000058   Code   RO         1516    i.USB_Port_Set      hw_config.o
    0x080046c8   0x00000024   Code   RO         2509    i.USB_SIL_Init      usb_sil.o
    0x080046ec   0x0000002e   Code   RO         2510    i.USB_SIL_Read      usb_sil.o
    0x0800471a   0x00000002   PAD
    0x0800471c   0x00000080   Code   RO         1517    i.USB_To_USART_Send_Data  hw_config.o
    0x0800479c   0x00000030   Code   RO         1518    i.USB_USART_SendData  hw_config.o
    0x080047cc   0x00000038   Code   RO         2108    i.UserToPMABufferCopy  usb_mem.o
    0x08004804   0x00000064   Code   RO         1731    i.Virtual_Com_Port_Data_Setup  usb_prop.o
    0x08004868   0x00000014   Code   RO         1732    i.Virtual_Com_Port_GetConfigDescriptor  usb_prop.o
    0x0800487c   0x00000014   Code   RO         1733    i.Virtual_Com_Port_GetDeviceDescriptor  usb_prop.o
    0x08004890   0x0000001c   Code   RO         1734    i.Virtual_Com_Port_GetLineCoding  usb_prop.o
    0x080048ac   0x00000028   Code   RO         1735    i.Virtual_Com_Port_GetStringDescriptor  usb_prop.o
    0x080048d4   0x00000016   Code   RO         1736    i.Virtual_Com_Port_Get_Interface_Setting  usb_prop.o
    0x080048ea   0x00000002   PAD
    0x080048ec   0x00000028   Code   RO         1737    i.Virtual_Com_Port_NoData_Setup  usb_prop.o
    0x08004914   0x000000e8   Code   RO         1738    i.Virtual_Com_Port_Reset  usb_prop.o
    0x080049fc   0x00000018   Code   RO         1739    i.Virtual_Com_Port_SetConfiguration  usb_prop.o
    0x08004a14   0x0000000c   Code   RO         1740    i.Virtual_Com_Port_SetDeviceAddress  usb_prop.o
    0x08004a20   0x0000001c   Code   RO         1741    i.Virtual_Com_Port_SetLineCoding  usb_prop.o
    0x08004a3c   0x0000001c   Code   RO         1742    i.Virtual_Com_Port_Status_In  usb_prop.o
    0x08004a58   0x00000002   Code   RO         1743    i.Virtual_Com_Port_Status_Out  usb_prop.o
    0x08004a5a   0x00000002   PAD
    0x08004a5c   0x00000028   Code   RO         1744    i.Virtual_Com_Port_init  usb_prop.o
    0x08004a84   0x00000028   Code   RO         4810    i.__ARM_fpclassify  m_ws.l(fpclassify.o)
    0x08004aac   0x0000000e   Code   RO         4627    i._is_digit         c_w.l(__printf_wp.o)
    0x08004aba   0x00000004   Code   RO          259    i._sys_exit         bstring.o
    0x08004abe   0x00000060   Code   RO          260    i.atoi              bstring.o
    0x08004b1e   0x00000002   PAD
    0x08004b20   0x00000038   Code   RO          205    i.delay_init        delay.o
    0x08004b58   0x00000074   Code   RO          206    i.delay_ms          delay.o
    0x08004bcc   0x0000001a   Code   RO          209    i.delayus           delay.o
    0x08004be6   0x00000002   Code   RO            4    i.finish            main.o
    0x08004be8   0x0000001c   Code   RO          261    i.fputc             bstring.o
    0x08004c04   0x00000002   Code   RO            5    i.get               main.o
    0x08004c06   0x00000062   Code   RO          262    i.itoa              bstring.o
    0x08004c68   0x00000154   Code   RO            6    i.main              main.o
    0x08004dbc   0x0000003c   Code   RO         1519    i.usb_printf        hw_config.o
    0x08004df8   0x0000002c   Code   RO         4797    locale$$code        c_w.l(lc_numeric_c.o)
    0x08004e24   0x0000002c   Code   RO         4818    locale$$code        c_w.l(lc_ctype_c.o)
    0x08004e50   0x00000004   Code   RO         4718    x$fpl$printf1       fz_ws.l(printf1.o)
    0x08004e54   0x00000004   Code   RO         4720    x$fpl$printf2       fz_ws.l(printf2.o)
    0x08004e58   0x00000000   Code   RO         4809    x$fpl$usenofp       fz_ws.l(usenofp.o)
    0x08004e58   0x000000b1   Data   RO         1636    .constdata          usb_desc.o
    0x08004f09   0x00000011   Data   RO         4635    .constdata          c_w.l(__printf_flags_ss_wp.o)
    0x08004f1a   0x00000002   PAD
    0x08004f1c   0x00000008   Data   RO         4665    .constdata          c_w.l(_printf_wctomb.o)
    0x08004f24   0x00000028   Data   RO         4694    .constdata          c_w.l(_printf_hex_int_ll_ptr.o)
    0x08004f4c   0x00000026   Data   RO         4746    .constdata          c_w.l(_printf_fp_hex.o)
    0x08004f72   0x00000002   PAD
    0x08004f74   0x00000094   Data   RO         4772    .constdata          c_w.l(bigflt0.o)
    0x08005008   0x00000020   Data   RO         4940    Region$$Table       anon$$obj.o
    0x08005028   0x0000001c   Data   RO         4796    locale$$data        c_w.l(lc_numeric_c.o)
    0x08005044   0x00000110   Data   RO         4817    locale$$data        c_w.l(lc_ctype_c.o)


    Execution Region RW_IRAM1 (Base: 0x20000000, Size: 0x000013e8, Max: 0x00005000, ABSOLUTE, COMPRESSED[0x000000ac])

    Base Addr    Size         Type   Attr      Idx    E Section Name        Object

    0x20000000   0x0000000c   Data   RW            7    .data               main.o
    0x2000000c   0x00000008   Data   RW          210    .data               delay.o
    0x20000014   0x00000004   Data   RW          263    .data               bstring.o
    0x20000018   0x00000008   Data   RW          631    .data               usart1.o
    0x20000020   0x00000008   Data   RW          705    .data               usart2.o
    0x20000028   0x00000008   Data   RW          779    .data               usart3.o
    0x20000030   0x00000002   Data   RW         1521    .data               hw_config.o
    0x20000032   0x0000001a   Data   RW         1637    .data               usb_desc.o
    0x2000004c   0x00000004   Data   RW         1665    .data               usb_endp.o
    0x20000050   0x00000044   Data   RW         1702    .data               usb_istr.o
    0x20000094   0x00000094   Data   RW         1745    .data               usb_prop.o
    0x20000128   0x0000000c   Data   RW         1850    .data               usb_pwr.o
    0x20000134   0x00000003   Data   RW         1918    .data               usb_core.o
    0x20000137   0x00000001   PAD
    0x20000138   0x00000014   Data   RW         2032    .data               usb_init.o
    0x2000014c   0x00000004   Data   RW         2067    .data               usb_int.o
    0x20000150   0x00000014   Data   RW         2556    .data               system_stm32f10x.o
    0x20000164   0x00000014   Data   RW         3452    .data               stm32f10x_rcc.o
    0x20000178   0x00000200   Zero   RW          629    .bss                usart1.o
    0x20000378   0x00000200   Zero   RW          703    .bss                usart2.o
    0x20000578   0x00000200   Zero   RW          777    .bss                usart3.o
    0x20000778   0x00000594   Zero   RW         1520    .bss                hw_config.o
    0x20000d0c   0x00000040   Zero   RW         1664    .bss                usb_endp.o
    0x20000d4c   0x00000020   Zero   RW         1849    .bss                usb_pwr.o
    0x20000d6c   0x0000001c   Zero   RW         2031    .bss                usb_init.o
    0x20000d88   0x00000060   Zero   RW         4813    .bss                c_w.l(libspace.o)
    0x20000de8   0x00000200   Zero   RW         2543    HEAP                startup_stm32f10x_md.o
    0x20000fe8   0x00000400   Zero   RW         2542    STACK               startup_stm32f10x_md.o


==============================================================================

Image component sizes


      Code (inc. data)   RO Data    RW Data    ZI Data      Debug   Object Name

       226          4          0          4          0       4032   bstring.o
       198         22          0          8          0       1682   delay.o
       490         62          0          0          0       4209   gpio.o
       924        272          0          2       1428      10011   hw_config.o
       344         86          0         12          0     249772   main.o
       804          0          0          0          0       6581   mi2c.o
       172         22          0          0          0       2245   misc.o
        64         26        236          0       1536        800   startup_stm32f10x_md.o
       258         36          0          0          0       7132   stm32f10x_dma.o
       160         12          0          0          0       1649   stm32f10x_exti.o
       304          0          0          0          0       3876   stm32f10x_gpio.o
       384         56          0         20          0       6971   stm32f10x_rcc.o
       646         28          0          0          0       8433   stm32f10x_usart.o
       328         28          0         20          0       2185   system_stm32f10x.o
       808         62          0          8        512       4715   usart1.o
       176         26          0          8        512       2647   usart2.o
       168         24          0          8        512       2647   usart3.o
      3058        288          0          3          0      14247   usb_core.o
         0          0        177         26          0       1019   usb_desc.o
       224         20          0          4         64       2132   usb_endp.o
        60         24          0         20         28       4066   usb_init.o
       648         32          0          4          0       1704   usb_int.o
       464         38          0         68          0       1531   usb_istr.o
        96         10          0          0          0       1748   usb_mem.o
       636        104          0        148          0      11085   usb_prop.o
       464         52          0         12         32       3412   usb_pwr.o
       712        100          0          0          0       9607   usb_regs.o
        82          8          0          0          0       1442   usb_sil.o

    ----------------------------------------------------------------------
     12924       1442        445        376       4624     371580   Object Totals
         0          0         32          0          0          0   (incl. Generated)
        26          0          0          1          0          0   (incl. Padding)

    ----------------------------------------------------------------------

      Code (inc. data)   RO Data    RW Data    ZI Data      Debug   Library Member Name

        24          4          0          0          0         84   __2printf.o
        90          0          0          0          0          0   __dczerorl2.o
         8          0          0          0          0         68   __main.o
       392          4         17          0          0         92   __printf_flags_ss_wp.o
        14          0          0          0          0         68   __printf_wp.o
         0          0          0          0          0          0   __rtentry.o
        12          0          0          0          0          0   __rtentry2.o
         6          0          0          0          0          0   __rtentry4.o
        52          8          0          0          0          0   __scatter.o
        28          0          0          0          0          0   __scatter_zi.o
         6          0          0          0          0          0   _printf_a.o
         6          0          0          0          0          0   _printf_c.o
        44          0          0          0          0        108   _printf_char.o
        48          6          0          0          0         96   _printf_char_common.o
        36          4          0          0          0         80   _printf_char_file.o
        40          0          0          0          0         68   _printf_charcount.o
         6          0          0          0          0          0   _printf_d.o
       120         16          0          0          0         92   _printf_dec.o
         6          0          0          0          0          0   _printf_e.o
         6          0          0          0          0          0   _printf_f.o
      1050          0          0          0          0        216   _printf_fp_dec.o
       764          8         38          0          0        100   _printf_fp_hex.o
       128         16          0          0          0         84   _printf_fp_infnan.o
         6          0          0          0          0          0   _printf_g.o
       148          4         40          0          0        160   _printf_hex_int_ll_ptr.o
         6          0          0          0          0          0   _printf_i.o
       178          0          0          0          0         88   _printf_intcommon.o
        10          0          0          0          0          0   _printf_l.o
         6          0          0          0          0          0   _printf_lc.o
        10          0          0          0          0          0   _printf_ll.o
         6          0          0          0          0          0   _printf_lld.o
         6          0          0          0          0          0   _printf_lli.o
         6          0          0          0          0          0   _printf_llo.o
         6          0          0          0          0          0   _printf_llu.o
         6          0          0          0          0          0   _printf_llx.o
       124         16          0          0          0         92   _printf_longlong_dec.o
         6          0          0          0          0          0   _printf_ls.o
         6          0          0          0          0          0   _printf_n.o
         6          0          0          0          0          0   _printf_o.o
       112         10          0          0          0        124   _printf_oct_int_ll.o
         6          0          0          0          0          0   _printf_p.o
        78          0          0          0          0        108   _printf_pad.o
         0          0          0          0          0          0   _printf_percent.o
         4          0          0          0          0          0   _printf_percent_end.o
         6          0          0          0          0          0   _printf_s.o
        82          0          0          0          0         80   _printf_str.o
        36          0          0          0          0         84   _printf_truncate.o
         6          0          0          0          0          0   _printf_u.o
        44          0          0          0          0        108   _printf_wchar.o
       188          6          8          0          0         92   _printf_wctomb.o
         6          0          0          0          0          0   _printf_x.o
        10          0          0          0          0         68   _sputc.o
        64          0          0          0          0         92   _wcrtomb.o
       220          4        148          0          0         96   bigflt0.o
      1910        128          0          0          0        672   btod.o
        18          0          0          0          0         80   exit.o
         8          0          0          0          0         68   ferror.o
         6          0          0          0          0        152   heapauxi.o
        44         10        272          0          0         76   lc_ctype_c.o
        44         10         28          0          0         76   lc_numeric_c.o
         2          0          0          0          0          0   libinit.o
        30          0          0          0          0          0   libinit2.o
         2          0          0          0          0          0   libshutdown.o
         2          0          0          0          0          0   libshutdown2.o
         8          4          0          0         96         68   libspace.o
       138          0          0          0          0         80   lludiv10.o
        16          4          0          0          0         76   rt_ctype_table.o
         8          4          0          0          0         68   rt_locale_intlibspace.o
         2          0          0          0          0          0   rtexit.o
        10          0          0          0          0          0   rtexit2.o
       128          0          0          0          0         68   strcmpv7m.o
        62          0          0          0          0         76   strlen.o
        74          0          0          0          0         80   sys_stackheap_outer.o
         2          0          0          0          0         68   use_no_semi.o
         2          0          0          0          0         68   use_no_semi_2.o
        36          4          0          0          0         76   vsprintf.o
         4          0          0          0          0         68   printf1.o
         4          0          0          0          0         68   printf2.o
         0          0          0          0          0          0   usenofp.o
        40          0          0          0          0         68   fpclassify.o

    ----------------------------------------------------------------------
      6896        270        555          0         96       4404   Library Totals
        12          0          4          0          0          0   (incl. Padding)

    ----------------------------------------------------------------------

      Code (inc. data)   RO Data    RW Data    ZI Data      Debug   Library Name

      6836        270        551          0         96       4200   c_w.l
         8          0          0          0          0        136   fz_ws.l
        40          0          0          0          0         68   m_ws.l

    ----------------------------------------------------------------------
      6896        270        555          0         96       4404   Library Totals

    ----------------------------------------------------------------------

==============================================================================


      Code (inc. data)   RO Data    RW Data    ZI Data      Debug   

     19820       1712       1000        376       4720     365476   Grand Totals
     19820       1712       1000        172       4720     365476   ELF Image Totals (compressed)
     19820       1712       1000        172          0          0   ROM Totals

==============================================================================

    Total RO  Size (Code + RO Data)                20820 (  20.33kB)
    Total RW  Size (RW Data + ZI Data)              5096 (   4.98kB)
    Total ROM Size (Code + RO Data + RW Data)      20992 (  20.50kB)

==============================================================================

